; ModuleID = 'klee_ready.bc'
source_filename = "llvm-link"
target datalayout = "e-m:e-p270:32:32-p271:32:32-p272:64:64-i64:64-f80:128-n8:16:32:64-S128"
target triple = "x86_64-unknown-linux-gnu"

%"class.std::ios_base::Init" = type { i8 }
%"struct.absl::lts_20250127::container_internal::internal_compressed_tuple::Storage.4" = type { i64 }
%"class.tensorflow::Tensor" = type { %"class.tensorflow::TensorShape", %"class.tensorflow::TensorBuffer"* }
%"class.tensorflow::TensorShape" = type { %"class.tensorflow::TensorShapeBase" }
%"class.tensorflow::TensorShapeBase" = type { %"class.tensorflow::TensorShapeRep" }
%"class.tensorflow::TensorShapeRep" = type { %union.anon.0, i64 }
%union.anon.0 = type { %"struct.tensorflow::TensorShapeRep::Rep64"*, [8 x i8] }
%"struct.tensorflow::TensorShapeRep::Rep64" = type { %"class.absl::lts_20250127::InlinedVector"* }
%"class.absl::lts_20250127::InlinedVector" = type { %"class.absl::lts_20250127::inlined_vector_internal::Storage" }
%"class.absl::lts_20250127::inlined_vector_internal::Storage" = type { %"class.absl::lts_20250127::container_internal::CompressedTuple", %"union.absl::lts_20250127::inlined_vector_internal::Storage<long, 4, std::allocator<long>>::Data" }
%"class.absl::lts_20250127::container_internal::CompressedTuple" = type { %"struct.absl::lts_20250127::container_internal::internal_compressed_tuple::CompressedTupleImpl" }
%"struct.absl::lts_20250127::container_internal::internal_compressed_tuple::CompressedTupleImpl" = type { %"struct.absl::lts_20250127::container_internal::internal_compressed_tuple::Storage.4" }
%"union.absl::lts_20250127::inlined_vector_internal::Storage<long, 4, std::allocator<long>>::Data" = type { %"struct.absl::lts_20250127::inlined_vector_internal::Storage<long, 4, std::allocator<long>>::Allocated", [16 x i8] }
%"struct.absl::lts_20250127::inlined_vector_internal::Storage<long, 4, std::allocator<long>>::Allocated" = type { i64*, i64 }
%"class.tensorflow::TensorBuffer" = type { %"class.tsl::core::RefCounted", i8* }
%"class.tsl::core::RefCounted" = type { i32 (...)**, %"struct.absl::lts_20250127::container_internal::internal_compressed_tuple::CompressedTupleImpl" }
%struct.TF_Tensor = type { %"class.tensorflow::AbstractTensorInterface"* }
%"class.tensorflow::AbstractTensorInterface" = type { i32 (...)** }
%"class.tensorflow::TensorInterface" = type { %"class.tensorflow::AbstractTensorInterface", %"class.tensorflow::Tensor" }
%struct.TF_TString = type { %union.anon.5 }
%union.anon.5 = type { %struct.TF_TString_Large }
%struct.TF_TString_Large = type { i64, i64, i8* }
%"class.std::__cxx11::basic_string" = type { %"struct.std::__cxx11::basic_string<char, std::char_traits<char>, std::allocator<char>>::_Alloc_hider", i64, %union.anon }
%"struct.std::__cxx11::basic_string<char, std::char_traits<char>, std::allocator<char>>::_Alloc_hider" = type { i8* }
%union.anon = type { i64, [8 x i8] }
%struct.TF_TString_Raw = type { [24 x i8] }
%class.TF_ManagedBuffer = type <{ %"class.tensorflow::TensorBuffer", i64, void (i8*, i64, i8*)*, i8*, i8, [7 x i8] }>
%"class.std::vector" = type { %"struct.std::_Vector_base" }
%"struct.std::_Vector_base" = type { %"struct.std::_Vector_base<long, std::allocator<long>>::_Vector_impl" }
%"struct.std::_Vector_base<long, std::allocator<long>>::_Vector_impl" = type { %"struct.std::_Vector_base<long, std::allocator<long>>::_Vector_impl_data" }
%"struct.std::_Vector_base<long, std::allocator<long>>::_Vector_impl_data" = type { i64*, i64*, i64* }
%"struct.tsl::internal::CheckOpString" = type { %"class.std::__cxx11::basic_string"* }
%"class.tsl::internal::LogMessageFatal" = type { %"class.tsl::internal::LogMessage.base", %"class.std::basic_ios" }
%"class.tsl::internal::LogMessage.base" = type { %"class.std::__cxx11::basic_ostringstream.base", %"class.std::basic_string_view", i32, i32 }
%"class.std::__cxx11::basic_ostringstream.base" = type { %"class.tensorflow::AbstractTensorInterface", %"class.std::__cxx11::basic_stringbuf" }
%"class.std::__cxx11::basic_stringbuf" = type { %"class.std::basic_streambuf", i32, %"class.std::__cxx11::basic_string" }
%"class.std::basic_streambuf" = type { i32 (...)**, i8*, i8*, i8*, i8*, i8*, i8*, %"class.std::locale" }
%"class.std::locale" = type { %"class.std::locale::_Impl"* }
%"class.std::locale::_Impl" = type { i32, %"class.std::locale::facet"**, i64, %"class.std::locale::facet"**, i8** }
%"class.std::locale::facet" = type <{ i32 (...)**, i32, [4 x i8] }>
%"class.std::basic_string_view" = type { i64, i8* }
%"class.std::basic_ios" = type { %"class.std::ios_base", %"class.std::basic_ostream"*, i8, i8, %"class.std::basic_streambuf"*, %"class.std::ctype"*, %"class.std::num_put"*, %"class.std::num_put"* }
%"class.std::ios_base" = type { i32 (...)**, i64, i64, i32, i32, i32, %"struct.std::ios_base::_Callback_list"*, %"struct.std::ios_base::_Words", [8 x %"struct.std::ios_base::_Words"], i32, %"struct.std::ios_base::_Words"*, %"class.std::locale" }
%"struct.std::ios_base::_Callback_list" = type { %"struct.std::ios_base::_Callback_list"*, void (i32, %"class.std::ios_base"*, i32)*, i32, i32 }
%"struct.std::ios_base::_Words" = type { i8*, i64 }
%"class.std::basic_ostream" = type { i32 (...)**, %"class.std::basic_ios" }
%"class.std::ctype" = type <{ %"class.std::locale::facet.base", [4 x i8], %struct.__locale_struct*, i8, [7 x i8], i32*, i32*, i16*, i8, [256 x i8], [256 x i8], i8, [6 x i8] }>
%"class.std::locale::facet.base" = type <{ i32 (...)**, i32 }>
%struct.__locale_struct = type { [13 x %struct.__locale_data*], i16*, i32*, i32*, [13 x i8*] }
%struct.__locale_data = type opaque
%"class.std::num_put" = type { %"class.std::locale::facet.base", [4 x i8] }
%"class.tsl::internal::CheckOpMessageBuilder" = type { %"class.std::__cxx11::basic_ostringstream"* }
%"class.std::__cxx11::basic_ostringstream" = type { %"class.tensorflow::AbstractTensorInterface", %"class.std::__cxx11::basic_stringbuf", %"class.std::basic_ios" }
%"class.tensorflow::AllocationDescription" = type { %"class.google::protobuf::Message", %union.anon.6 }
%"class.google::protobuf::Message" = type { %"class.google::protobuf::MessageLite" }
%"class.google::protobuf::MessageLite" = type { i32 (...)**, %"struct.absl::lts_20250127::container_internal::internal_compressed_tuple::Storage.4" }
%union.anon.6 = type { %"struct.tensorflow::AllocationDescription::Impl_" }
%"struct.tensorflow::AllocationDescription::Impl_" = type { %"struct.google::protobuf::internal::ArenaStringPtr", i64, i64, i64, i64, i8, %"class.google::protobuf::internal::CachedSize" }
%"struct.google::protobuf::internal::ArenaStringPtr" = type { %"struct.std::__cxx11::basic_string<char, std::char_traits<char>, std::allocator<char>>::_Alloc_hider" }
%"class.google::protobuf::internal::CachedSize" = type { i32 }
%"class.google::protobuf::Arena" = type { %"class.google::protobuf::internal::ThreadSafeArena" }
%"class.google::protobuf::internal::ThreadSafeArena" = type { i64, %"struct.absl::lts_20250127::container_internal::internal_compressed_tuple::Storage.4", %"class.std::ios_base::Init", %"class.absl::lts_20250127::container_internal::CompressedTuple", %"struct.std::atomic.6", i8*, %"class.google::protobuf::internal::SerialArena" }
%"struct.std::atomic.6" = type { %"struct.std::__atomic_base.7" }
%"struct.std::__atomic_base.7" = type { %"class.google::protobuf::internal::ThreadSafeArena::SerialArenaChunk"* }
%"class.google::protobuf::internal::ThreadSafeArena::SerialArenaChunk" = type opaque
%"class.google::protobuf::internal::SerialArena" = type { %"struct.google::protobuf::internal::ArenaStringPtr", i8*, i8*, %"class.google::protobuf::internal::cleanup::ChunkList", %"struct.std::atomic.10", %"struct.absl::lts_20250127::container_internal::internal_compressed_tuple::CompressedTupleImpl", %"struct.std::atomic.14", %"struct.absl::lts_20250127::container_internal::internal_compressed_tuple::CompressedTupleImpl", %"struct.absl::lts_20250127::container_internal::internal_compressed_tuple::CompressedTupleImpl", %"class.google::protobuf::internal::ThreadSafeArena"*, i8, %"struct.google::protobuf::internal::SerialArena::CachedBlock"** }
%"class.google::protobuf::internal::cleanup::ChunkList" = type { %"struct.google::protobuf::internal::cleanup::ChunkList::Chunk"*, %"struct.google::protobuf::internal::cleanup::CleanupNode"*, %"struct.google::protobuf::internal::cleanup::CleanupNode"*, i8* }
%"struct.google::protobuf::internal::cleanup::ChunkList::Chunk" = type opaque
%"struct.google::protobuf::internal::cleanup::CleanupNode" = type { i8*, void (i8*)* }
%"struct.std::atomic.10" = type { %"struct.std::__atomic_base.11" }
%"struct.std::__atomic_base.11" = type { %"class.google::protobuf::internal::StringBlock"* }
%"class.google::protobuf::internal::StringBlock" = type <{ %"class.google::protobuf::internal::StringBlock"*, i16, i16, i8, [3 x i8] }>
%"struct.std::atomic.14" = type { %"struct.std::__atomic_base.15" }
%"struct.std::__atomic_base.15" = type { %"struct.google::protobuf::internal::ArenaBlock"* }
%"struct.google::protobuf::internal::ArenaBlock" = type { %"struct.google::protobuf::internal::ArenaBlock"*, i64 }
%"struct.google::protobuf::internal::SerialArena::CachedBlock" = type { %"struct.google::protobuf::internal::SerialArena::CachedBlock"* }
%"class.std::function.41" = type { %"class.std::_Function_base", i1 (%"union.std::_Any_data"*, %"class.tensorflow::Variant"**)* }
%"class.std::_Function_base" = type { %"union.std::_Any_data", i1 (%"union.std::_Any_data"*, %"union.std::_Any_data"*, i32)* }
%"union.std::_Any_data" = type { %"union.std::_Nocopy_types" }
%"union.std::_Nocopy_types" = type { { i64, i64 } }
%"class.tensorflow::Variant" = type <{ %union.anon.20, i8, [7 x i8] }>
%union.anon.20 = type { %"class.std::unique_ptr", [48 x i8] }
%"class.std::unique_ptr" = type { %"struct.std::__uniq_ptr_data" }
%"struct.std::__uniq_ptr_data" = type { %"class.std::__uniq_ptr_impl" }
%"class.std::__uniq_ptr_impl" = type { %"class.std::tuple" }
%"class.std::tuple" = type { %"struct.std::_Tuple_impl" }
%"struct.std::_Tuple_impl" = type { %struct.TF_Tensor }
%class.anon = type { %"class.std::__cxx11::basic_string" }
%"class.tensorflow::UnaryVariantOpRegistry" = type { %"class.tsl::gtl::FlatMap", %"class.tsl::gtl::FlatMap.16", %"class.tsl::gtl::FlatMap.26", %"class.tsl::gtl::FlatMap.33" }
%"class.tsl::gtl::FlatMap" = type { %"class.tsl::gtl::internal::FlatRep" }
%"class.tsl::gtl::internal::FlatRep" = type { %"class.std::ios_base::Init", %"class.std::ios_base::Init", i8, %"struct.tsl::gtl::FlatMap<std::basic_string_view<char, std::char_traits<char>>, std::function<bool (tensorflow::Variant *)>, tsl::hash<absl::string_view>, std::equal_to<std::basic_string_view<char, std::char_traits<char>>>>::Bucket"*, %"struct.tsl::gtl::FlatMap<std::basic_string_view<char, std::char_traits<char>>, std::function<bool (tensorflow::Variant *)>, tsl::hash<absl::string_view>, std::equal_to<std::basic_string_view<char, std::char_traits<char>>>>::Bucket"*, i64, i64, i64, i64, i64 }
%"struct.tsl::gtl::FlatMap<std::basic_string_view<char, std::char_traits<char>>, std::function<bool (tensorflow::Variant *)>, tsl::hash<absl::string_view>, std::equal_to<std::basic_string_view<char, std::char_traits<char>>>>::Bucket" = type opaque
%"class.tsl::gtl::FlatMap.16" = type { %"class.tsl::gtl::internal::FlatRep.17" }
%"class.tsl::gtl::internal::FlatRep.17" = type { %"class.std::ios_base::Init", %"class.std::ios_base::Init", i8, %"struct.tsl::gtl::FlatMap<std::pair<tensorflow::VariantDeviceCopyDirection, tensorflow::TypeIndex>, std::function<absl::lts_20250127::Status (const tensorflow::Variant &, tensorflow::Variant *, std::function<absl::lts_20250127::Status (const tensorflow::Tensor &, tensorflow::Tensor *)>)>, tensorflow::UnaryVariantOpRegistry::PairHash, std::equal_to<std::pair<tensorflow::VariantDeviceCopyDirection, tensorflow::TypeIndex>>>::Bucket"*, %"struct.tsl::gtl::FlatMap<std::pair<tensorflow::VariantDeviceCopyDirection, tensorflow::TypeIndex>, std::function<absl::lts_20250127::Status (const tensorflow::Variant &, tensorflow::Variant *, std::function<absl::lts_20250127::Status (const tensorflow::Tensor &, tensorflow::Tensor *)>)>, tensorflow::UnaryVariantOpRegistry::PairHash, std::equal_to<std::pair<tensorflow::VariantDeviceCopyDirection, tensorflow::TypeIndex>>>::Bucket"*, i64, i64, i64, i64, i64 }
%"struct.tsl::gtl::FlatMap<std::pair<tensorflow::VariantDeviceCopyDirection, tensorflow::TypeIndex>, std::function<absl::lts_20250127::Status (const tensorflow::Variant &, tensorflow::Variant *, std::function<absl::lts_20250127::Status (const tensorflow::Tensor &, tensorflow::Tensor *)>)>, tensorflow::UnaryVariantOpRegistry::PairHash, std::equal_to<std::pair<tensorflow::VariantDeviceCopyDirection, tensorflow::TypeIndex>>>::Bucket" = type { [8 x i8], %"union.tsl::gtl::FlatMap<std::pair<tensorflow::VariantDeviceCopyDirection, tensorflow::TypeIndex>, std::function<absl::lts_20250127::Status (const tensorflow::Variant &, tensorflow::Variant *, std::function<absl::lts_20250127::Status (const tensorflow::Tensor &, tensorflow::Tensor *)>)>, tensorflow::UnaryVariantOpRegistry::PairHash, std::equal_to<std::pair<tensorflow::VariantDeviceCopyDirection, tensorflow::TypeIndex>>>::Bucket::Storage" }
%"union.tsl::gtl::FlatMap<std::pair<tensorflow::VariantDeviceCopyDirection, tensorflow::TypeIndex>, std::function<absl::lts_20250127::Status (const tensorflow::Variant &, tensorflow::Variant *, std::function<absl::lts_20250127::Status (const tensorflow::Tensor &, tensorflow::Tensor *)>)>, tensorflow::UnaryVariantOpRegistry::PairHash, std::equal_to<std::pair<tensorflow::VariantDeviceCopyDirection, tensorflow::TypeIndex>>>::Bucket::Storage" = type { %struct.anon }
%struct.anon = type { [8 x %"struct.std::pair"], [8 x %"class.std::function"] }
%"struct.std::pair" = type { i32, %"class.std::basic_string_view" }
%"class.std::function" = type { %"class.std::_Function_base", void (%"struct.absl::lts_20250127::container_internal::internal_compressed_tuple::Storage.4"*, %"union.std::_Any_data"*, %"class.tensorflow::Variant"*, %"class.tensorflow::Variant"**, %"class.std::function.23"*)* }
%"class.std::function.23" = type { %"class.std::_Function_base", void (%"struct.absl::lts_20250127::container_internal::internal_compressed_tuple::Storage.4"*, %"union.std::_Any_data"*, %"class.tensorflow::Tensor"*, %"class.tensorflow::Tensor"**)* }
%"class.tsl::gtl::FlatMap.26" = type { %"class.tsl::gtl::internal::FlatRep.27" }
%"class.tsl::gtl::internal::FlatRep.27" = type { %"struct.tensorflow::UnaryVariantOpRegistry::TupleHash", %"class.std::ios_base::Init", i8, %"struct.tsl::gtl::FlatMap<tensorflow::UnaryVariantOpRegistry::FuncTuple<tensorflow::VariantUnaryOp>, std::function<absl::lts_20250127::Status (tensorflow::OpKernelContext *, const tensorflow::Variant &, tensorflow::Variant *)>, tensorflow::UnaryVariantOpRegistry::TupleHash, std::equal_to<tensorflow::UnaryVariantOpRegistry::FuncTuple<tensorflow::VariantUnaryOp>>>::Bucket"*, %"struct.tsl::gtl::FlatMap<tensorflow::UnaryVariantOpRegistry::FuncTuple<tensorflow::VariantUnaryOp>, std::function<absl::lts_20250127::Status (tensorflow::OpKernelContext *, const tensorflow::Variant &, tensorflow::Variant *)>, tensorflow::UnaryVariantOpRegistry::TupleHash, std::equal_to<tensorflow::UnaryVariantOpRegistry::FuncTuple<tensorflow::VariantUnaryOp>>>::Bucket"*, i64, i64, i64, i64, i64 }
%"struct.tensorflow::UnaryVariantOpRegistry::TupleHash" = type { %"class.std::ios_base::Init" }
%"struct.tsl::gtl::FlatMap<tensorflow::UnaryVariantOpRegistry::FuncTuple<tensorflow::VariantUnaryOp>, std::function<absl::lts_20250127::Status (tensorflow::OpKernelContext *, const tensorflow::Variant &, tensorflow::Variant *)>, tensorflow::UnaryVariantOpRegistry::TupleHash, std::equal_to<tensorflow::UnaryVariantOpRegistry::FuncTuple<tensorflow::VariantUnaryOp>>>::Bucket" = type { [8 x i8], %"union.tsl::gtl::FlatMap<tensorflow::UnaryVariantOpRegistry::FuncTuple<tensorflow::VariantUnaryOp>, std::function<absl::lts_20250127::Status (tensorflow::OpKernelContext *, const tensorflow::Variant &, tensorflow::Variant *)>, tensorflow::UnaryVariantOpRegistry::TupleHash, std::equal_to<tensorflow::UnaryVariantOpRegistry::FuncTuple<tensorflow::VariantUnaryOp>>>::Bucket::Storage" }
%"union.tsl::gtl::FlatMap<tensorflow::UnaryVariantOpRegistry::FuncTuple<tensorflow::VariantUnaryOp>, std::function<absl::lts_20250127::Status (tensorflow::OpKernelContext *, const tensorflow::Variant &, tensorflow::Variant *)>, tensorflow::UnaryVariantOpRegistry::TupleHash, std::equal_to<tensorflow::UnaryVariantOpRegistry::FuncTuple<tensorflow::VariantUnaryOp>>>::Bucket::Storage" = type { %struct.anon.30 }
%struct.anon.30 = type { [8 x %"struct.tensorflow::UnaryVariantOpRegistry::FuncTuple"], [8 x %"class.std::function.31"] }
%"struct.tensorflow::UnaryVariantOpRegistry::FuncTuple" = type { i32, %"class.std::basic_string_view", %"class.std::basic_string_view" }
%"class.std::function.31" = type { %"class.std::_Function_base", void (%"struct.absl::lts_20250127::container_internal::internal_compressed_tuple::Storage.4"*, %"union.std::_Any_data"*, %"class.tensorflow::OpKernelContext"**, %"class.tensorflow::Variant"*, %"class.tensorflow::Variant"**)* }
%"class.tensorflow::OpKernelContext" = type opaque
%"class.tsl::gtl::FlatMap.33" = type { %"class.tsl::gtl::internal::FlatRep.34" }
%"class.tsl::gtl::internal::FlatRep.34" = type { %"struct.tensorflow::UnaryVariantOpRegistry::TupleHash", %"class.std::ios_base::Init", i8, %"struct.tsl::gtl::FlatMap<tensorflow::UnaryVariantOpRegistry::FuncTuple<tensorflow::VariantBinaryOp>, std::function<absl::lts_20250127::Status (tensorflow::OpKernelContext *, const tensorflow::Variant &, const tensorflow::Variant &, tensorflow::Variant *)>, tensorflow::UnaryVariantOpRegistry::TupleHash, std::equal_to<tensorflow::UnaryVariantOpRegistry::FuncTuple<tensorflow::VariantBinaryOp>>>::Bucket"*, %"struct.tsl::gtl::FlatMap<tensorflow::UnaryVariantOpRegistry::FuncTuple<tensorflow::VariantBinaryOp>, std::function<absl::lts_20250127::Status (tensorflow::OpKernelContext *, const tensorflow::Variant &, const tensorflow::Variant &, tensorflow::Variant *)>, tensorflow::UnaryVariantOpRegistry::TupleHash, std::equal_to<tensorflow::UnaryVariantOpRegistry::FuncTuple<tensorflow::VariantBinaryOp>>>::Bucket"*, i64, i64, i64, i64, i64 }
%"struct.tsl::gtl::FlatMap<tensorflow::UnaryVariantOpRegistry::FuncTuple<tensorflow::VariantBinaryOp>, std::function<absl::lts_20250127::Status (tensorflow::OpKernelContext *, const tensorflow::Variant &, const tensorflow::Variant &, tensorflow::Variant *)>, tensorflow::UnaryVariantOpRegistry::TupleHash, std::equal_to<tensorflow::UnaryVariantOpRegistry::FuncTuple<tensorflow::VariantBinaryOp>>>::Bucket" = type { [8 x i8], %"union.tsl::gtl::FlatMap<tensorflow::UnaryVariantOpRegistry::FuncTuple<tensorflow::VariantBinaryOp>, std::function<absl::lts_20250127::Status (tensorflow::OpKernelContext *, const tensorflow::Variant &, const tensorflow::Variant &, tensorflow::Variant *)>, tensorflow::UnaryVariantOpRegistry::TupleHash, std::equal_to<tensorflow::UnaryVariantOpRegistry::FuncTuple<tensorflow::VariantBinaryOp>>>::Bucket::Storage" }
%"union.tsl::gtl::FlatMap<tensorflow::UnaryVariantOpRegistry::FuncTuple<tensorflow::VariantBinaryOp>, std::function<absl::lts_20250127::Status (tensorflow::OpKernelContext *, const tensorflow::Variant &, const tensorflow::Variant &, tensorflow::Variant *)>, tensorflow::UnaryVariantOpRegistry::TupleHash, std::equal_to<tensorflow::UnaryVariantOpRegistry::FuncTuple<tensorflow::VariantBinaryOp>>>::Bucket::Storage" = type { %struct.anon.37 }
%struct.anon.37 = type { [8 x %"struct.tensorflow::UnaryVariantOpRegistry::FuncTuple"], [8 x %"class.std::function.39"] }
%"class.std::function.39" = type { %"class.std::_Function_base", void (%"struct.absl::lts_20250127::container_internal::internal_compressed_tuple::Storage.4"*, %"union.std::_Any_data"*, %"class.tensorflow::OpKernelContext"**, %"class.tensorflow::Variant"*, %"class.tensorflow::Variant"*, %"class.tensorflow::Variant"**)* }
%"class.std::type_info" = type { i32 (...)**, i8* }
%"class.tensorflow::VariantTensorDataProto" = type { %"class.google::protobuf::Message", %union.anon.43 }
%union.anon.43 = type { %"struct.tensorflow::VariantTensorDataProto::Impl_" }
%"struct.tensorflow::VariantTensorDataProto::Impl_" = type <{ %"class.google::protobuf::RepeatedPtrField", %"struct.google::protobuf::internal::ArenaStringPtr", %"struct.google::protobuf::internal::ArenaStringPtr", %"class.google::protobuf::internal::CachedSize", [4 x i8] }>
%"class.google::protobuf::RepeatedPtrField" = type { %"class.google::protobuf::internal::RepeatedPtrFieldBase" }
%"class.google::protobuf::internal::RepeatedPtrFieldBase" = type { i8*, i32, i32, %"class.google::protobuf::Arena"* }
%"class.tensorflow::VariantTensorData" = type { %"class.std::__cxx11::basic_string", %"class.std::__cxx11::basic_string", %"class.std::vector.48" }
%"class.std::vector.48" = type { %"struct.std::_Vector_base.47" }
%"struct.std::_Vector_base.47" = type { %"struct.std::_Vector_base<tensorflow::Tensor, std::allocator<tensorflow::Tensor>>::_Vector_impl" }
%"struct.std::_Vector_base<tensorflow::Tensor, std::allocator<tensorflow::Tensor>>::_Vector_impl" = type { %"struct.std::_Vector_base<tensorflow::Tensor, std::allocator<tensorflow::Tensor>>::_Vector_impl_data" }
%"struct.std::_Vector_base<tensorflow::Tensor, std::allocator<tensorflow::Tensor>>::_Vector_impl_data" = type { %"class.tensorflow::Tensor"*, %"class.tensorflow::Tensor"*, %"class.tensorflow::Tensor"* }
%"struct.tensorflow::Variant::Value" = type { %"class.tensorflow::AbstractTensorInterface", %"class.tensorflow::VariantTensorDataProto" }
%"struct.tensorflow::Variant::InlineValue" = type { [56 x i8] }
%"struct.google::protobuf::internal::InternalMetadata::ContainerBase" = type { %"class.google::protobuf::Arena"* }
%"class.std::unique_ptr.47" = type { %"struct.std::__uniq_ptr_data.48" }
%"struct.std::__uniq_ptr_data.48" = type { %"class.std::__uniq_ptr_impl.49" }
%"class.std::__uniq_ptr_impl.49" = type { %"class.std::tuple.50" }
%"class.std::tuple.50" = type { %"struct.std::_Tuple_impl.51" }
%"struct.std::_Tuple_impl.51" = type { %"struct.std::_Head_base.54" }
%"struct.std::_Head_base.54" = type { %"class.tensorflow::TensorInterface"* }
%"class.__gnu_cxx::__normal_iterator" = type { %"class.tensorflow::Tensor"* }

$_ZN10tensorflow15TensorInterfaceD2Ev = comdat any

$_ZN10tensorflow15TensorInterfaceD0Ev = comdat any

$_ZN10tensorflow23AbstractTensorInterfaceD2Ev = comdat any

$_ZN10tensorflow10TensorCApi6BufferERKNS_6TensorE = comdat any

$_ZNK3tsl4core10RefCounted13RefCountIsOneEv = comdat any

$_ZStanSt12memory_orderSt23__memory_order_modifier = comdat any

$__clang_call_terminate = comdat any

$_ZNK10tensorflow6Tensor9IsAlignedEv = comdat any

$_ZNK10tensorflow6Tensor4baseIvEEPT_v = comdat any

$_ZNK10tensorflow6Tensor5dtypeEv = comdat any

$_ZNK10tensorflow6Tensor11NumElementsEv = comdat any

$_ZNK10tensorflow6Tensor5shapeEv = comdat any

$_ZNK10tensorflow14TensorShapeRep12num_elementsEv = comdat any

$_ZNK10tensorflow14TensorShapeRep9data_typeEv = comdat any

$_ZNK10tensorflow14TensorShapeRep3bufEv = comdat any

$_ZNK10tensorflow12TensorBuffer4baseIvEEPT_v = comdat any

$_ZNK10tensorflow12TensorBuffer4dataEv = comdat any

$_ZNK10tensorflow6Tensor8dim_sizeEi = comdat any

$_ZNK10tensorflow6Tensor4dimsEv = comdat any

$_ZNSt7__cxx1112basic_stringIcSt11char_traitsIcESaIcEEC2IS3_EEPKcRKS3_ = comdat any

$_ZNSt11char_traitsIcE6lengthEPKc = comdat any

$_ZNSt7__cxx1112basic_stringIcSt11char_traitsIcESaIcEE12_M_constructIPKcEEvT_S8_St20forward_iterator_tag = comdat any

$_ZNSt7__cxx1112basic_stringIcSt11char_traitsIcESaIcEE12_Alloc_hiderD2Ev = comdat any

$_ZN9__gnu_cxx17__is_null_pointerIKcEEbPT_ = comdat any

$_ZSt8distanceIPKcENSt15iterator_traitsIT_E15difference_typeES3_S3_ = comdat any

$_ZSt19__iterator_categoryIPKcENSt15iterator_traitsIT_E17iterator_categoryERKS3_ = comdat any

$_ZSt10__distanceIPKcENSt15iterator_traitsIT_E15difference_typeES3_S3_St26random_access_iterator_tag = comdat any

$_ZN9__gnu_cxx11char_traitsIcE6lengthEPKc = comdat any

$_ZN9__gnu_cxx11char_traitsIcE2eqERKcS3_ = comdat any

$_ZN16TF_ManagedBufferC2EPvmPFvS0_mS0_ES0_b = comdat any

$_ZNSaIlEC2Ev = comdat any

$_ZNSt6vectorIlSaIlEEC2EmRKS0_ = comdat any

$_ZNSaIlED2Ev = comdat any

$_ZNSt6vectorIlSaIlEEixEm = comdat any

$_ZN4absl12lts_202501274SpanIKlEC2ISt6vectorIlSaIlEEvS7_iEERKT_ = comdat any

$_ZN10tensorflow11TensorShapeCI2NS_15TensorShapeBaseIS0_EEEN4absl12lts_202501274SpanIKlEE = comdat any

$_ZN10tensorflow11TensorShapeD2Ev = comdat any

$_ZNK3tsl4core10RefCounted5UnrefEv = comdat any

$_ZSt4moveIRN10tensorflow6TensorEEONSt16remove_referenceIT_E4typeEOS4_ = comdat any

$_ZN10tensorflow6TensorC2EOS0_ = comdat any

$_ZN10tensorflow15TensorInterfaceC2ENS_6TensorE = comdat any

$_ZNSt6vectorIlSaIlEED2Ev = comdat any

$_ZNSt12_Vector_baseIlSaIlEE19_M_get_Tp_allocatorEv = comdat any

$_ZSt8_DestroyIPllEvT_S1_RSaIT0_E = comdat any

$_ZNSt12_Vector_baseIlSaIlEED2Ev = comdat any

$_ZNSt12_Vector_baseIlSaIlEE13_M_deallocateEPlm = comdat any

$_ZNSt12_Vector_baseIlSaIlEE12_Vector_implD2Ev = comdat any

$_ZNSt16allocator_traitsISaIlEE10deallocateERS0_Plm = comdat any

$_ZN9__gnu_cxx13new_allocatorIlE10deallocateEPlm = comdat any

$_ZSt8_DestroyIPlEvT_S1_ = comdat any

$_ZNSt12_Destroy_auxILb1EE9__destroyIPlEEvT_S3_ = comdat any

$_ZN10tensorflow23AbstractTensorInterfaceC2Ev = comdat any

$_ZN10tensorflow23AbstractTensorInterfaceD0Ev = comdat any

$_ZSt4moveIRN10tensorflow11TensorShapeEEONSt16remove_referenceIT_E4typeEOS4_ = comdat any

$_ZN10tensorflow11TensorShapeC2EOS0_ = comdat any

$_ZN10tensorflow15TensorShapeBaseINS_11TensorShapeEEC2EOS2_ = comdat any

$_ZN10tensorflow14TensorShapeRepC2EOS0_ = comdat any

$_ZN10tensorflow14TensorShapeRep3bufEv = comdat any

$_ZN10tensorflow14TensorShapeRep7set_tagENS0_6RepTagE = comdat any

$_ZN3tsl8internal21GetReferenceableValueEl = comdat any

$_ZN3tsl8internal21GetReferenceableValueEi = comdat any

$_ZN3tsl8internal12Check_GTImplIliEEPNSt7__cxx1112basic_stringIcSt11char_traitsIcESaIcEEERKT_RKT0_PKc = comdat any

$_ZN3tsl8internal13CheckOpStringC2EPNSt7__cxx1112basic_stringIcSt11char_traitsIcESaIcEEE = comdat any

$_ZNK3tsl8internal13CheckOpStringcvbEv = comdat any

$_ZStlsIN3tsl8internal15LogMessageFatalENSt7__cxx1112basic_stringIcSt11char_traitsIcESaIcEEEEOT_SA_RKT0_ = comdat any

$_ZSt4moveIRN3tsl8internal15LogMessageFatalEEONSt16remove_referenceIT_E4typeEOS5_ = comdat any

$_ZN3tsl8internal12Check_LTImplIilEEPNSt7__cxx1112basic_stringIcSt11char_traitsIcESaIcEEERKT_RKT0_PKc = comdat any

$_ZN3tsl8internal17MakeCheckOpStringIilEEPNSt7__cxx1112basic_stringIcSt11char_traitsIcESaIcEEERKT_RKT0_PKc = comdat any

$_ZN3tsl8internal21CheckOpMessageBuilder7ForVar1Ev = comdat any

$_ZN3tsl8internal22MakeCheckOpValueStringIiEEvPSoRKT_ = comdat any

$_ZN3tsl8internal22MakeCheckOpValueStringIlEEvPSoRKT_ = comdat any

$_ZN10tensorflow15TensorShapeBaseINS_11TensorShapeEED2Ev = comdat any

$_ZN10tensorflow14TensorShapeRepD2Ev = comdat any

$_ZNK10tensorflow14TensorShapeRep3tagEv = comdat any

$_ZN4absl12lts_2025012713span_internal7GetDataIKSt6vectorIlSaIlEEEEDTcl11GetDataImplfp_Li0EEERT_ = comdat any

$_ZNKSt6vectorIlSaIlEE4sizeEv = comdat any

$_ZN4absl12lts_202501274SpanIKlEC2EPS2_m = comdat any

$_ZN4absl12lts_2025012713span_internal11GetDataImplIKSt6vectorIlSaIlEEEEDTcldtfp_4dataEERT_c = comdat any

$_ZNKSt6vectorIlSaIlEE4dataEv = comdat any

$_ZNKSt6vectorIlSaIlEE11_M_data_ptrIlEEPT_S4_ = comdat any

$_ZN9__gnu_cxx13new_allocatorIlED2Ev = comdat any

$_ZNSt6vectorIlSaIlEE17_S_check_init_lenEmRKS0_ = comdat any

$_ZNSt12_Vector_baseIlSaIlEEC2EmRKS0_ = comdat any

$_ZNSt6vectorIlSaIlEE21_M_default_initializeEm = comdat any

$_ZSt27__uninitialized_default_n_aIPlmlET_S1_T0_RSaIT1_E = comdat any

$_ZSt25__uninitialized_default_nIPlmET_S1_T0_ = comdat any

$_ZNSt27__uninitialized_default_n_1ILb1EE18__uninit_default_nIPlmEET_S3_T0_ = comdat any

$_ZSt11__addressofIlEPT_RS0_ = comdat any

$_ZSt10_ConstructIlJEEvPT_DpOT0_ = comdat any

$_ZSt6fill_nIPlmlET_S1_T0_RKT1_ = comdat any

$_ZSt17__size_to_integerm = comdat any

$_ZSt19__iterator_categoryIPlENSt15iterator_traitsIT_E17iterator_categoryERKS2_ = comdat any

$_ZSt10__fill_n_aIPlmlET_S1_T0_RKT1_St26random_access_iterator_tag = comdat any

$_ZSt8__fill_aIPllEvT_S1_RKT0_ = comdat any

$_ZSt9__fill_a1IPllEN9__gnu_cxx11__enable_ifIXsr11__is_scalarIT0_EE7__valueEvE6__typeET_S6_RKS3_ = comdat any

$_ZNSt12_Vector_baseIlSaIlEE12_Vector_implC2ERKS0_ = comdat any

$_ZNSt12_Vector_baseIlSaIlEE17_M_create_storageEm = comdat any

$_ZNSt12_Vector_baseIlSaIlEE11_M_allocateEm = comdat any

$_ZNSt16allocator_traitsISaIlEE8allocateERS0_m = comdat any

$_ZN9__gnu_cxx13new_allocatorIlE8allocateEmPKv = comdat any

$_ZNK9__gnu_cxx13new_allocatorIlE11_M_max_sizeEv = comdat any

$_ZNSaIlEC2ERKS_ = comdat any

$_ZNSt12_Vector_baseIlSaIlEE17_Vector_impl_dataC2Ev = comdat any

$_ZN9__gnu_cxx13new_allocatorIlEC2ERKS1_ = comdat any

$_ZNSt6vectorIlSaIlEE11_S_max_sizeERKS0_ = comdat any

$_ZNSt16allocator_traitsISaIlEE8max_sizeERKS0_ = comdat any

$_ZSt3minImERKT_S2_S2_ = comdat any

$_ZNK9__gnu_cxx13new_allocatorIlE8max_sizeEv = comdat any

$_ZN9__gnu_cxx13new_allocatorIlEC2Ev = comdat any

$_ZN10tensorflow12TensorBufferC2EPv = comdat any

$_ZN16TF_ManagedBufferD2Ev = comdat any

$_ZN16TF_ManagedBufferD0Ev = comdat any

$_ZNK3tsl4core10RefCounted13NotifyDeletedEv = comdat any

$_ZNK16TF_ManagedBuffer4sizeEv = comdat any

$_ZN16TF_ManagedBuffer11root_bufferEv = comdat any

$_ZNK16TF_ManagedBuffer25FillAllocationDescriptionEPN10tensorflow21AllocationDescriptionE = comdat any

$_ZNK16TF_ManagedBuffer10OwnsMemoryEv = comdat any

$_ZNK10tensorflow12TensorBuffer13GetMemoryTypeEv = comdat any

$_ZN10tensorflow12TensorBufferD2Ev = comdat any

$_ZN3tsl4core10RefCountedD2Ev = comdat any

$_ZN3tsl8internal12Check_EQImplIliEEPNSt7__cxx1112basic_stringIcSt11char_traitsIcESaIcEEERKT_RKT0_PKc = comdat any

$_ZN3tsl8internal17MakeCheckOpStringIliEEPNSt7__cxx1112basic_stringIcSt11char_traitsIcESaIcEEERKT_RKT0_PKc = comdat any

$_ZN3tsl4core10RefCountedD0Ev = comdat any

$_ZN3tsl4core10RefCountedC2Ev = comdat any

$_ZNSt6atomicIlEC2El = comdat any

$_ZNSt13__atomic_baseIlEC2El = comdat any

$_ZN10tensorflow20DataTypeCanUseMemcpyENS_8DataTypeE = comdat any

$_ZSt3maxIiERKT_S2_S2_ = comdat any

$_ZNK10tensorflow11DataTypeSet8ContainsENS_8DataTypeE = comdat any

$_ZN10tensorflow9down_castIPNS_15TensorInterfaceENS_23AbstractTensorInterfaceEEET_PT0_ = comdat any

$_ZN10tensorflow11TensorShapeC2Ev = comdat any

$_ZN10tensorflow6Tensor9set_shapeERKNS_11TensorShapeE = comdat any

$_ZN10tensorflow11TensorShapeaSERKS0_ = comdat any

$_ZN10tensorflow6Tensor9set_dtypeENS_8DataTypeE = comdat any

$_ZN10tensorflow14TensorShapeRep13set_data_typeENS_8DataTypeE = comdat any

$_ZN3tsl8internal21GetReferenceableValueEj = comdat any

$_ZN3tsl8internal12Check_LTImplIjjEEPNSt7__cxx1112basic_stringIcSt11char_traitsIcESaIcEEERKT_RKT0_PKc = comdat any

$_ZN3tsl8internal17MakeCheckOpStringIjjEEPNSt7__cxx1112basic_stringIcSt11char_traitsIcESaIcEEERKT_RKT0_PKc = comdat any

$_ZN3tsl8internal22MakeCheckOpValueStringIjEEvPSoRKT_ = comdat any

$_ZN10tensorflow15TensorShapeBaseINS_11TensorShapeEEaSERKS2_ = comdat any

$_ZN10tensorflow14TensorShapeRepaSERKS0_ = comdat any

$_ZN10tensorflow12TensorBufferD0Ev = comdat any

$_ZNK10tensorflow12TensorBuffer10OwnsMemoryEv = comdat any

$_ZN10tensorflow21AllocationDescriptionC2Ev = comdat any

$_ZNK10tensorflow21AllocationDescription15allocated_bytesEv = comdat any

$_ZNK10tensorflow21AllocationDescription25_internal_allocated_bytesEv = comdat any

$_ZN10tensorflow35variant_op_registry_fn_registration30UnaryVariantDecodeRegistrationINS_6TensorEEC2ERKNSt7__cxx1112basic_stringIcSt11char_traitsIcESaIcEEE = comdat any

$_ZN10tensorflow22UnaryVariantOpRegistry6GlobalEv = comdat any

$_ZNSt8functionIFbPN10tensorflow7VariantEEEC2IZNS0_35variant_op_registry_fn_registration30UnaryVariantDecodeRegistrationINS0_6TensorEEC1ERKNSt7__cxx1112basic_stringIcSt11char_traitsIcESaIcEEEEUlS2_E_vEEOT_ = comdat any

$_ZNSt8functionIFbPN10tensorflow7VariantEEED2Ev = comdat any

$_ZZN10tensorflow35variant_op_registry_fn_registration30UnaryVariantDecodeRegistrationINS_6TensorEEC1ERKNSt7__cxx1112basic_stringIcSt11char_traitsIcESaIcEEEENUlPNS_7VariantEE_D2Ev = comdat any

$_ZNSt14_Function_baseD2Ev = comdat any

$_ZNSt14_Function_baseC2Ev = comdat any

$_ZNSt14_Function_base13_Base_managerIZN10tensorflow35variant_op_registry_fn_registration30UnaryVariantDecodeRegistrationINS1_6TensorEEC1ERKNSt7__cxx1112basic_stringIcSt11char_traitsIcESaIcEEEEUlPNS1_7VariantEE_E21_M_not_empty_functionISG_EEbRKT_ = comdat any

$_ZSt7forwardIZN10tensorflow35variant_op_registry_fn_registration30UnaryVariantDecodeRegistrationINS0_6TensorEEC1ERKNSt7__cxx1112basic_stringIcSt11char_traitsIcESaIcEEEEUlPNS0_7VariantEE_EOT_RNSt16remove_referenceISG_E4typeE = comdat any

$_ZNSt14_Function_base13_Base_managerIZN10tensorflow35variant_op_registry_fn_registration30UnaryVariantDecodeRegistrationINS1_6TensorEEC1ERKNSt7__cxx1112basic_stringIcSt11char_traitsIcESaIcEEEEUlPNS1_7VariantEE_E15_M_init_functorISG_EEvRSt9_Any_dataOT_ = comdat any

$_ZNSt17_Function_handlerIFbPN10tensorflow7VariantEEZNS0_35variant_op_registry_fn_registration30UnaryVariantDecodeRegistrationINS0_6TensorEEC1ERKNSt7__cxx1112basic_stringIcSt11char_traitsIcESaIcEEEEUlS2_E_E9_M_invokeERKSt9_Any_dataOS2_ = comdat any

$_ZNSt17_Function_handlerIFbPN10tensorflow7VariantEEZNS0_35variant_op_registry_fn_registration30UnaryVariantDecodeRegistrationINS0_6TensorEEC1ERKNSt7__cxx1112basic_stringIcSt11char_traitsIcESaIcEEEEUlS2_E_E10_M_managerERSt9_Any_dataRKSI_St18_Manager_operation = comdat any

$_ZNSt9_Any_data9_M_accessIPKSt9type_infoEERT_v = comdat any

$_ZNSt14_Function_base13_Base_managerIZN10tensorflow35variant_op_registry_fn_registration30UnaryVariantDecodeRegistrationINS1_6TensorEEC1ERKNSt7__cxx1112basic_stringIcSt11char_traitsIcESaIcEEEEUlPNS1_7VariantEE_E14_M_get_pointerERKSt9_Any_data = comdat any

$_ZNSt9_Any_data9_M_accessIPZN10tensorflow35variant_op_registry_fn_registration30UnaryVariantDecodeRegistrationINS1_6TensorEEC1ERKNSt7__cxx1112basic_stringIcSt11char_traitsIcESaIcEEEEUlPNS1_7VariantEE_EERT_v = comdat any

$_ZNSt14_Function_base13_Base_managerIZN10tensorflow35variant_op_registry_fn_registration30UnaryVariantDecodeRegistrationINS1_6TensorEEC1ERKNSt7__cxx1112basic_stringIcSt11char_traitsIcESaIcEEEEUlPNS1_7VariantEE_E10_M_managerERSt9_Any_dataRKSI_St18_Manager_operation = comdat any

$_ZNSt14_Function_base13_Base_managerIZN10tensorflow35variant_op_registry_fn_registration30UnaryVariantDecodeRegistrationINS1_6TensorEEC1ERKNSt7__cxx1112basic_stringIcSt11char_traitsIcESaIcEEEEUlPNS1_7VariantEE_E15_M_init_functorIRKSG_EEvRSt9_Any_dataOT_ = comdat any

$_ZNSt14_Function_base13_Base_managerIZN10tensorflow35variant_op_registry_fn_registration30UnaryVariantDecodeRegistrationINS1_6TensorEEC1ERKNSt7__cxx1112basic_stringIcSt11char_traitsIcESaIcEEEEUlPNS1_7VariantEE_E10_M_destroyERSt9_Any_dataSt17integral_constantIbLb0EE = comdat any

$_ZSt7forwardIRKZN10tensorflow35variant_op_registry_fn_registration30UnaryVariantDecodeRegistrationINS0_6TensorEEC1ERKNSt7__cxx1112basic_stringIcSt11char_traitsIcESaIcEEEEUlPNS0_7VariantEE_EOT_RNSt16remove_referenceISI_E4typeE = comdat any

$_ZNSt14_Function_base13_Base_managerIZN10tensorflow35variant_op_registry_fn_registration30UnaryVariantDecodeRegistrationINS1_6TensorEEC1ERKNSt7__cxx1112basic_stringIcSt11char_traitsIcESaIcEEEEUlPNS1_7VariantEE_E9_M_createIRKSG_EEvRSt9_Any_dataOT_St17integral_constantIbLb0EE = comdat any

$_ZZN10tensorflow35variant_op_registry_fn_registration30UnaryVariantDecodeRegistrationINS_6TensorEEC1ERKNSt7__cxx1112basic_stringIcSt11char_traitsIcESaIcEEEENUlPNS_7VariantEE_C2ERKSE_ = comdat any

$_ZNSt9_Any_data9_M_accessEv = comdat any

$_ZNKSt9_Any_data9_M_accessIPZN10tensorflow35variant_op_registry_fn_registration30UnaryVariantDecodeRegistrationINS1_6TensorEEC1ERKNSt7__cxx1112basic_stringIcSt11char_traitsIcESaIcEEEEUlPNS1_7VariantEE_EERKT_v = comdat any

$_ZNKSt9_Any_data9_M_accessEv = comdat any

$_ZSt7forwardIPN10tensorflow7VariantEEOT_RNSt16remove_referenceIS3_E4typeE = comdat any

$_ZSt10__invoke_rIbRZN10tensorflow35variant_op_registry_fn_registration30UnaryVariantDecodeRegistrationINS0_6TensorEEC1ERKNSt7__cxx1112basic_stringIcSt11char_traitsIcESaIcEEEEUlPNS0_7VariantEE_JSE_EENSt9enable_ifIX16is_invocable_r_vIT_T0_DpT1_EESI_E4typeEOSJ_DpOSK_ = comdat any

$_ZSt7forwardIRZN10tensorflow35variant_op_registry_fn_registration30UnaryVariantDecodeRegistrationINS0_6TensorEEC1ERKNSt7__cxx1112basic_stringIcSt11char_traitsIcESaIcEEEEUlPNS0_7VariantEE_EOT_RNSt16remove_referenceISH_E4typeE = comdat any

$_ZSt13__invoke_implIbRZN10tensorflow35variant_op_registry_fn_registration30UnaryVariantDecodeRegistrationINS0_6TensorEEC1ERKNSt7__cxx1112basic_stringIcSt11char_traitsIcESaIcEEEEUlPNS0_7VariantEE_JSE_EET_St14__invoke_otherOT0_DpOT1_ = comdat any

$_ZZN10tensorflow35variant_op_registry_fn_registration30UnaryVariantDecodeRegistrationINS_6TensorEEC1ERKNSt7__cxx1112basic_stringIcSt11char_traitsIcESaIcEEEENKUlPNS_7VariantEE_clESD_ = comdat any

$_ZN3tsl8internal21GetReferenceableValueIPN10tensorflow7VariantEEERKT_S7_ = comdat any

$_ZN3tsl8internal21GetReferenceableValueIDnEERKT_S4_ = comdat any

$_ZN3tsl8internal12Check_NEImplIPN10tensorflow7VariantEDnEEPNSt7__cxx1112basic_stringIcSt11char_traitsIcESaIcEEERKT_RKT0_PKc = comdat any

$_ZN10tensorflow7Variant3getINS_22VariantTensorDataProtoEEEPT_v = comdat any

$_ZN10tensorflow7VariantC2INS_6TensorES2_LPv0EEEOT_ = comdat any

$_ZSt4moveIRN10tensorflow22VariantTensorDataProtoEEONSt16remove_referenceIT_E4typeEOS4_ = comdat any

$_ZN10tensorflow22VariantTensorDataProtoC2EOS0_ = comdat any

$_ZSt4moveIRN10tensorflow17VariantTensorDataEEONSt16remove_referenceIT_E4typeEOS4_ = comdat any

$_ZN10tensorflow17VariantTensorDataC2EOS0_ = comdat any

$_ZN10tensorflow17VariantTensorDataD2Ev = comdat any

$_ZSt4swapIN10tensorflow7VariantEENSt9enable_ifIXsr6__and_ISt6__not_ISt15__is_tuple_likeIT_EESt21is_move_constructibleIS5_ESt18is_move_assignableIS5_EEE5valueEvE4typeERS5_SE_ = comdat any

$_ZSt4moveIRN10tensorflow7VariantEEONSt16remove_referenceIT_E4typeEOS4_ = comdat any

$_ZN10tensorflow7VariantC2EOS0_ = comdat any

$_ZN10tensorflow7VariantaSEOS0_ = comdat any

$_ZN10tensorflow7Variant4swapERS0_ = comdat any

$_ZNK10tensorflow7Variant8is_emptyEv = comdat any

$_ZNK10tensorflow7Variant13IsInlineValueEv = comdat any

$_ZSt4moveIRN10tensorflow7Variant11InlineValueEEONSt16remove_referenceIT_E4typeEOS5_ = comdat any

$_ZN10tensorflow7Variant17ResetAndSetInlineIJNS0_11InlineValueEEEEvDpOT_ = comdat any

$_ZSt4moveIRSt10unique_ptrIN10tensorflow7Variant14ValueInterfaceESt14default_deleteIS3_EEEONSt16remove_referenceIT_E4typeEOS9_ = comdat any

$_ZN10tensorflow7Variant15ResetAndSetHeapIJSt10unique_ptrINS0_14ValueInterfaceESt14default_deleteIS3_EEEEEvDpOT_ = comdat any

$_ZN10tensorflow7Variant5clearEv = comdat any

$_ZSt4swapIN10tensorflow7Variant11InlineValueEENSt9enable_ifIXsr6__and_ISt6__not_ISt15__is_tuple_likeIT_EESt21is_move_constructibleIS6_ESt18is_move_assignableIS6_EEE5valueEvE4typeERS6_SF_ = comdat any

$_ZSt4swapIN10tensorflow7Variant14ValueInterfaceESt14default_deleteIS2_EENSt9enable_ifIXsr14__is_swappableIT0_EE5valueEvE4typeERSt10unique_ptrIT_S6_ESC_ = comdat any

$_ZNSt10unique_ptrIN10tensorflow7Variant14ValueInterfaceESt14default_deleteIS2_EEC2EOS5_ = comdat any

$_ZNSt10unique_ptrIN10tensorflow7Variant14ValueInterfaceESt14default_deleteIS2_EED2Ev = comdat any

$_ZNSt15__uniq_ptr_implIN10tensorflow7Variant14ValueInterfaceESt14default_deleteIS2_EE6_M_ptrEv = comdat any

$_ZNSt10unique_ptrIN10tensorflow7Variant14ValueInterfaceESt14default_deleteIS2_EE11get_deleterEv = comdat any

$_ZSt4moveIRPN10tensorflow7Variant14ValueInterfaceEEONSt16remove_referenceIT_E4typeEOS6_ = comdat any

$_ZNKSt14default_deleteIN10tensorflow7Variant14ValueInterfaceEEclEPS2_ = comdat any

$_ZNSt15__uniq_ptr_implIN10tensorflow7Variant14ValueInterfaceESt14default_deleteIS2_EE10_M_deleterEv = comdat any

$_ZSt3getILm1EJPN10tensorflow7Variant14ValueInterfaceESt14default_deleteIS2_EEERNSt13tuple_elementIXT_ESt5tupleIJDpT0_EEE4typeERSA_ = comdat any

$_ZSt12__get_helperILm1ESt14default_deleteIN10tensorflow7Variant14ValueInterfaceEEJEERT0_RSt11_Tuple_implIXT_EJS5_DpT1_EE = comdat any

$_ZNSt11_Tuple_implILm1EJSt14default_deleteIN10tensorflow7Variant14ValueInterfaceEEEE7_M_headERS5_ = comdat any

$_ZNSt10_Head_baseILm1ESt14default_deleteIN10tensorflow7Variant14ValueInterfaceEELb1EE7_M_headERS5_ = comdat any

$_ZSt3getILm0EJPN10tensorflow7Variant14ValueInterfaceESt14default_deleteIS2_EEERNSt13tuple_elementIXT_ESt5tupleIJDpT0_EEE4typeERSA_ = comdat any

$_ZSt12__get_helperILm0EPN10tensorflow7Variant14ValueInterfaceEJSt14default_deleteIS2_EEERT0_RSt11_Tuple_implIXT_EJS6_DpT1_EE = comdat any

$_ZNSt11_Tuple_implILm0EJPN10tensorflow7Variant14ValueInterfaceESt14default_deleteIS2_EEE7_M_headERS6_ = comdat any

$_ZNSt10_Head_baseILm0EPN10tensorflow7Variant14ValueInterfaceELb0EE7_M_headERS4_ = comdat any

$_ZNSt15__uniq_ptr_dataIN10tensorflow7Variant14ValueInterfaceESt14default_deleteIS2_ELb1ELb1EEC2EOS5_ = comdat any

$_ZNSt15__uniq_ptr_implIN10tensorflow7Variant14ValueInterfaceESt14default_deleteIS2_EEC2EOS5_ = comdat any

$_ZSt4moveIRSt5tupleIJPN10tensorflow7Variant14ValueInterfaceESt14default_deleteIS3_EEEEONSt16remove_referenceIT_E4typeEOSA_ = comdat any

$_ZNSt5tupleIJPN10tensorflow7Variant14ValueInterfaceESt14default_deleteIS2_EEEC2EOS6_ = comdat any

$_ZNSt11_Tuple_implILm0EJPN10tensorflow7Variant14ValueInterfaceESt14default_deleteIS2_EEEC2EOS6_ = comdat any

$_ZNSt11_Tuple_implILm1EJSt14default_deleteIN10tensorflow7Variant14ValueInterfaceEEEEC2EOS5_ = comdat any

$_ZNSt10unique_ptrIN10tensorflow7Variant14ValueInterfaceESt14default_deleteIS2_EE4swapERS5_ = comdat any

$_ZNSt15__uniq_ptr_implIN10tensorflow7Variant14ValueInterfaceESt14default_deleteIS2_EE4swapERS5_ = comdat any

$_ZSt4swapIPN10tensorflow7Variant14ValueInterfaceEENSt9enable_ifIXsr6__and_ISt6__not_ISt15__is_tuple_likeIT_EESt21is_move_constructibleIS7_ESt18is_move_assignableIS7_EEE5valueEvE4typeERS7_SG_ = comdat any

$_ZSt4swapISt14default_deleteIN10tensorflow7Variant14ValueInterfaceEEENSt9enable_ifIXsr6__and_ISt6__not_ISt15__is_tuple_likeIT_EESt21is_move_constructibleIS8_ESt18is_move_assignableIS8_EEE5valueEvE4typeERS8_SH_ = comdat any

$_ZSt4moveIRSt14default_deleteIN10tensorflow7Variant14ValueInterfaceEEEONSt16remove_referenceIT_E4typeEOS7_ = comdat any

$_ZN10tensorflow7Variant11InlineValueC2EOS1_ = comdat any

$_ZN10tensorflow7Variant11InlineValueaSEOS1_ = comdat any

$_ZN10tensorflow7Variant11InlineValueD2Ev = comdat any

$_ZN10tensorflow7Variant11InlineValue11ResetMemoryEv = comdat any

$_ZN10tensorflow7Variant11InlineValue16AsValueInterfaceEv = comdat any

$_ZNK10tensorflow9TypeIndexeqERKS0_ = comdat any

$_ZN10tensorflow9TypeIndexD2Ev = comdat any

$_ZN10tensorflow7Variant15ResetAndSetHeapIJDnEEEvDpOT_ = comdat any

$_ZN10tensorflow7Variant11ResetMemoryEv = comdat any

$_ZSt7forwardIDnEOT_RNSt16remove_referenceIS0_E4typeE = comdat any

$_ZNSt10unique_ptrIN10tensorflow7Variant14ValueInterfaceESt14default_deleteIS2_EEC2IS4_vEEDn = comdat any

$_ZNSt15__uniq_ptr_dataIN10tensorflow7Variant14ValueInterfaceESt14default_deleteIS2_ELb1ELb1EECI2St15__uniq_ptr_implIS2_S4_EEv = comdat any

$_ZNSt15__uniq_ptr_implIN10tensorflow7Variant14ValueInterfaceESt14default_deleteIS2_EEC2Ev = comdat any

$_ZNSt5tupleIJPN10tensorflow7Variant14ValueInterfaceESt14default_deleteIS2_EEEC2ILb1ELb1EEEv = comdat any

$_ZNSt11_Tuple_implILm0EJPN10tensorflow7Variant14ValueInterfaceESt14default_deleteIS2_EEEC2Ev = comdat any

$_ZNSt11_Tuple_implILm1EJSt14default_deleteIN10tensorflow7Variant14ValueInterfaceEEEEC2Ev = comdat any

$_ZNSt10_Head_baseILm0EPN10tensorflow7Variant14ValueInterfaceELb0EEC2Ev = comdat any

$_ZNSt10_Head_baseILm1ESt14default_deleteIN10tensorflow7Variant14ValueInterfaceEELb1EEC2Ev = comdat any

$_ZSt7forwardISt10unique_ptrIN10tensorflow7Variant14ValueInterfaceESt14default_deleteIS3_EEEOT_RNSt16remove_referenceIS7_E4typeE = comdat any

$_ZSt7forwardIN10tensorflow7Variant11InlineValueEEOT_RNSt16remove_referenceIS3_E4typeE = comdat any

$_ZNK10tensorflow7Variant8GetValueEv = comdat any

$_ZNK10tensorflow7Variant11InlineValue16AsValueInterfaceEv = comdat any

$_ZNKSt10unique_ptrIN10tensorflow7Variant14ValueInterfaceESt14default_deleteIS2_EE3getEv = comdat any

$_ZNKSt15__uniq_ptr_implIN10tensorflow7Variant14ValueInterfaceESt14default_deleteIS2_EE6_M_ptrEv = comdat any

$_ZSt3getILm0EJPN10tensorflow7Variant14ValueInterfaceESt14default_deleteIS2_EEERKNSt13tuple_elementIXT_ESt5tupleIJDpT0_EEE4typeERKSA_ = comdat any

$_ZSt12__get_helperILm0EPN10tensorflow7Variant14ValueInterfaceEJSt14default_deleteIS2_EEERKT0_RKSt11_Tuple_implIXT_EJS6_DpT1_EE = comdat any

$_ZNSt11_Tuple_implILm0EJPN10tensorflow7Variant14ValueInterfaceESt14default_deleteIS2_EEE7_M_headERKS6_ = comdat any

$_ZNSt10_Head_baseILm0EPN10tensorflow7Variant14ValueInterfaceELb0EE7_M_headERKS4_ = comdat any

$_ZNSt6vectorIN10tensorflow6TensorESaIS1_EED2Ev = comdat any

$_ZNSt12_Vector_baseIN10tensorflow6TensorESaIS1_EE19_M_get_Tp_allocatorEv = comdat any

$_ZSt8_DestroyIPN10tensorflow6TensorES1_EvT_S3_RSaIT0_E = comdat any

$_ZNSt12_Vector_baseIN10tensorflow6TensorESaIS1_EED2Ev = comdat any

$_ZNSt12_Vector_baseIN10tensorflow6TensorESaIS1_EE13_M_deallocateEPS1_m = comdat any

$_ZNSt12_Vector_baseIN10tensorflow6TensorESaIS1_EE12_Vector_implD2Ev = comdat any

$_ZNSaIN10tensorflow6TensorEED2Ev = comdat any

$_ZN9__gnu_cxx13new_allocatorIN10tensorflow6TensorEED2Ev = comdat any

$_ZNSt16allocator_traitsISaIN10tensorflow6TensorEEE10deallocateERS2_PS1_m = comdat any

$_ZN9__gnu_cxx13new_allocatorIN10tensorflow6TensorEE10deallocateEPS2_m = comdat any

$_ZSt8_DestroyIPN10tensorflow6TensorEEvT_S3_ = comdat any

$_ZNSt12_Destroy_auxILb0EE9__destroyIPN10tensorflow6TensorEEEvT_S5_ = comdat any

$_ZSt11__addressofIN10tensorflow6TensorEEPT_RS2_ = comdat any

$_ZSt8_DestroyIN10tensorflow6TensorEEvPT_ = comdat any

$_ZNSt6vectorIN10tensorflow6TensorESaIS1_EEC2EOS3_ = comdat any

$_ZNSt12_Vector_baseIN10tensorflow6TensorESaIS1_EEC2EOS3_ = comdat any

$_ZNSt12_Vector_baseIN10tensorflow6TensorESaIS1_EE12_Vector_implC2EOS4_ = comdat any

$_ZSt4moveIRNSt12_Vector_baseIN10tensorflow6TensorESaIS2_EE12_Vector_implEEONSt16remove_referenceIT_E4typeEOS8_ = comdat any

$_ZNSaIN10tensorflow6TensorEEC2ERKS1_ = comdat any

$_ZNSt12_Vector_baseIN10tensorflow6TensorESaIS1_EE17_Vector_impl_dataC2EOS4_ = comdat any

$_ZN9__gnu_cxx13new_allocatorIN10tensorflow6TensorEEC2ERKS3_ = comdat any

$_ZN10tensorflow22VariantTensorDataProtoC2EPN6google8protobuf5ArenaEOS0_ = comdat any

$_ZN10tensorflow22VariantTensorDataProtoaSEOS0_ = comdat any

$_ZNK6google8protobuf11MessageLite8GetArenaEv = comdat any

$_ZNK6google8protobuf8internal16InternalMetadata5arenaEv = comdat any

$_ZNK6google8protobuf8internal16InternalMetadata19have_unknown_fieldsEv = comdat any

$_ZNK6google8protobuf8internal16InternalMetadata8PtrValueINS2_13ContainerBaseEEEPT_v = comdat any

$_ZNK6google8protobuf8internal16InternalMetadata8PtrValueINS0_5ArenaEEEPT_v = comdat any

$_ZN10tensorflow7Variant13CanInlineTypeINS_6TensorEEEbv = comdat any

$_ZSt7forwardIN10tensorflow6TensorEEOT_RNSt16remove_referenceIS2_E4typeE = comdat any

$_ZN10tensorflow7Variant11InsertValueINS_6TensorES2_EEvOT0_ = comdat any

$_ZN10tensorflow7Variant11InlineValueC2INS_6TensorEJS3_EEENS1_3TagIT_EEDpOT0_ = comdat any

$_ZN10tensorflow7Variant7InPlaceEv = comdat any

$_ZSt11make_uniqueIN10tensorflow7Variant5ValueINS0_6TensorEEEJNS1_10in_place_tES3_EENSt9_MakeUniqIT_E15__single_objectEDpOT0_ = comdat any

$_ZNSt10unique_ptrIN10tensorflow7Variant14ValueInterfaceESt14default_deleteIS2_EEC2INS1_5ValueINS0_6TensorEEES3_IS9_EvEEOS_IT_T0_E = comdat any

$_ZNSt10unique_ptrIN10tensorflow7Variant5ValueINS0_6TensorEEESt14default_deleteIS4_EED2Ev = comdat any

$_ZNSt15__uniq_ptr_implIN10tensorflow7Variant5ValueINS0_6TensorEEESt14default_deleteIS4_EE6_M_ptrEv = comdat any

$_ZNSt10unique_ptrIN10tensorflow7Variant5ValueINS0_6TensorEEESt14default_deleteIS4_EE11get_deleterEv = comdat any

$_ZSt4moveIRPN10tensorflow7Variant5ValueINS0_6TensorEEEEONSt16remove_referenceIT_E4typeEOS8_ = comdat any

$_ZNKSt14default_deleteIN10tensorflow7Variant5ValueINS0_6TensorEEEEclEPS4_ = comdat any

$_ZN10tensorflow7Variant5ValueINS_6TensorEED2Ev = comdat any

$_ZN10tensorflow7Variant14ValueInterfaceD2Ev = comdat any

$_ZN10tensorflow7Variant5ValueINS_6TensorEED0Ev = comdat any

$_ZNK10tensorflow7Variant5ValueINS_6TensorEE6TypeIdEv = comdat any

$_ZN10tensorflow7Variant5ValueINS_6TensorEE6RawPtrEv = comdat any

$_ZNK10tensorflow7Variant5ValueINS_6TensorEE6RawPtrEv = comdat any

$_ZNK10tensorflow7Variant5ValueINS_6TensorEE5CloneEv = comdat any

$_ZNK10tensorflow7Variant5ValueINS_6TensorEE9CloneIntoEPNS0_14ValueInterfaceE = comdat any

$_ZN10tensorflow7Variant5ValueINS_6TensorEE10MoveAssignEPNS0_14ValueInterfaceE = comdat any

$_ZN10tensorflow7Variant5ValueINS_6TensorEE8MoveIntoEPNS0_14ValueInterfaceE = comdat any

$_ZNK10tensorflow7Variant5ValueINS_6TensorEE8TypeNameB5cxx11Ev = comdat any

$_ZNK10tensorflow7Variant5ValueINS_6TensorEE11DebugStringB5cxx11Ev = comdat any

$_ZNK10tensorflow7Variant5ValueINS_6TensorEE6EncodeEPNS_17VariantTensorDataE = comdat any

$_ZN10tensorflow7Variant5ValueINS_6TensorEE6DecodeENS_17VariantTensorDataE = comdat any

$_ZNK10tensorflow7Variant5ValueINS_6TensorEE6EncodeEPNSt7__cxx1112basic_stringIcSt11char_traitsIcESaIcEEE = comdat any

$_ZN10tensorflow7Variant5ValueINS_6TensorEE6DecodeENSt7__cxx1112basic_stringIcSt11char_traitsIcESaIcEEE = comdat any

$_ZN10tensorflow13DecodeVariantINS_6TensorEEEbPNSt7__cxx1112basic_stringIcSt11char_traitsIcESaIcEEEPT_ = comdat any

$_ZN10tensorflow17VariantTensorDataC2Ev = comdat any

$_ZN10tensorflow17DecodeVariantImplINS_6TensorEEEbNS_17VariantTensorDataENS_12TypeResolverIT_Lb0ELb1ELb0EEEPS4_ = comdat any

$_ZN10tensorflow6TensoraSERKS0_ = comdat any

$_ZN10tensorflow6Tensor16CopyFromInternalERKS0_RKNS_11TensorShapeE = comdat any

$_ZN3tsl8internal12Check_EQImplIllEEPNSt7__cxx1112basic_stringIcSt11char_traitsIcESaIcEEERKT_RKT0_PKc = comdat any

$_ZNK3tsl4core10RefCounted3RefEv = comdat any

$_ZN3tsl8internal17MakeCheckOpStringIllEEPNSt7__cxx1112basic_stringIcSt11char_traitsIcESaIcEEERKT_RKT0_PKc = comdat any

$_ZNSt6vectorIN10tensorflow6TensorESaIS1_EEC2Ev = comdat any

$_ZNSt12_Vector_baseIN10tensorflow6TensorESaIS1_EEC2Ev = comdat any

$_ZNSt12_Vector_baseIN10tensorflow6TensorESaIS1_EE12_Vector_implC2Ev = comdat any

$_ZNSaIN10tensorflow6TensorEEC2Ev = comdat any

$_ZNSt12_Vector_baseIN10tensorflow6TensorESaIS1_EE17_Vector_impl_dataC2Ev = comdat any

$_ZN9__gnu_cxx13new_allocatorIN10tensorflow6TensorEEC2Ev = comdat any

$_ZN10tensorflow13EncodeVariantINS_6TensorEEEvRKT_PNSt7__cxx1112basic_stringIcSt11char_traitsIcESaIcEEE = comdat any

$_ZN10tensorflow17EncodeVariantImplINS_6TensorEEEvRKT_NS_12TypeResolverIS2_Lb0ELb1EXsr3std10is_base_ofIN6google8protobuf11MessageLiteENSt5decayIS2_E4typeEEE5valueEEEPNS_17VariantTensorDataE = comdat any

$_ZN10tensorflow15TypeNameVariantINS_6TensorEEENSt7__cxx1112basic_stringIcSt11char_traitsIcESaIcEEERKT_ = comdat any

$_ZN10tensorflow17VariantTensorData13set_type_nameERKNSt7__cxx1112basic_stringIcSt11char_traitsIcESaIcEEE = comdat any

$_ZStlsIN3tsl8internal15LogMessageFatalEA30_cEOT_S5_RKT0_ = comdat any

$_ZN10tensorflow19TypeNameVariantImplINS_6TensorEEENSt7__cxx1112basic_stringIcSt11char_traitsIcESaIcEEERKT_NS_16TypeNameResolverIS8_Lb0ELb1EXsr3std10is_base_ofIN6google8protobuf11MessageLiteENSt5decayIS8_E4typeEEE5valueEEE = comdat any

$_ZNSt6vectorIN10tensorflow6TensorESaIS1_EE5clearEv = comdat any

$_ZNSt6vectorIN10tensorflow6TensorESaIS1_EE9push_backERKS1_ = comdat any

$_ZNSt16allocator_traitsISaIN10tensorflow6TensorEEE9constructIS1_JRKS1_EEEvRS2_PT_DpOT0_ = comdat any

$_ZNSt6vectorIN10tensorflow6TensorESaIS1_EE3endEv = comdat any

$_ZNSt6vectorIN10tensorflow6TensorESaIS1_EE17_M_realloc_insertIJRKS1_EEEvN9__gnu_cxx17__normal_iteratorIPS1_S3_EEDpOT_ = comdat any

$_ZNKSt6vectorIN10tensorflow6TensorESaIS1_EE12_M_check_lenEmPKc = comdat any

$_ZNSt6vectorIN10tensorflow6TensorESaIS1_EE5beginEv = comdat any

$_ZN9__gnu_cxxmiIPN10tensorflow6TensorESt6vectorIS2_SaIS2_EEEENS_17__normal_iteratorIT_T0_E15difference_typeERKSA_SD_ = comdat any

$_ZNSt12_Vector_baseIN10tensorflow6TensorESaIS1_EE11_M_allocateEm = comdat any

$_ZSt7forwardIRKN10tensorflow6TensorEEOT_RNSt16remove_referenceIS4_E4typeE = comdat any

$_ZNK9__gnu_cxx17__normal_iteratorIPN10tensorflow6TensorESt6vectorIS2_SaIS2_EEE4baseEv = comdat any

$_ZSt34__uninitialized_move_if_noexcept_aIPN10tensorflow6TensorES2_SaIS1_EET0_T_S5_S4_RT1_ = comdat any

$_ZNSt16allocator_traitsISaIN10tensorflow6TensorEEE7destroyIS1_EEvRS2_PT_ = comdat any

$_ZN9__gnu_cxx13new_allocatorIN10tensorflow6TensorEE7destroyIS2_EEvPT_ = comdat any

$_ZSt32__make_move_if_noexcept_iteratorIN10tensorflow6TensorEPKS1_ET0_PT_ = comdat any

$_ZSt22__uninitialized_copy_aIPKN10tensorflow6TensorEPS1_S1_ET0_T_S6_S5_RSaIT1_E = comdat any

$_ZSt18uninitialized_copyIPKN10tensorflow6TensorEPS1_ET0_T_S6_S5_ = comdat any

$_ZNSt20__uninitialized_copyILb0EE13__uninit_copyIPKN10tensorflow6TensorEPS3_EET0_T_S8_S7_ = comdat any

$_ZSt10_ConstructIN10tensorflow6TensorEJRKS1_EEvPT_DpOT0_ = comdat any

$_ZN10tensorflow6TensorC2ERKS0_ = comdat any

$_ZN10tensorflow11TensorShapeC2ERKS0_ = comdat any

$_ZN10tensorflow15TensorShapeBaseINS_11TensorShapeEEC2ERKS2_ = comdat any

$_ZN10tensorflow14TensorShapeRepC2ERKS0_ = comdat any

$_ZNSt16allocator_traitsISaIN10tensorflow6TensorEEE8allocateERS2_m = comdat any

$_ZN9__gnu_cxx13new_allocatorIN10tensorflow6TensorEE8allocateEmPKv = comdat any

$_ZNK9__gnu_cxx13new_allocatorIN10tensorflow6TensorEE11_M_max_sizeEv = comdat any

$_ZN9__gnu_cxx17__normal_iteratorIPN10tensorflow6TensorESt6vectorIS2_SaIS2_EEEC2ERKS3_ = comdat any

$_ZNKSt6vectorIN10tensorflow6TensorESaIS1_EE8max_sizeEv = comdat any

$_ZNKSt6vectorIN10tensorflow6TensorESaIS1_EE4sizeEv = comdat any

$_ZSt3maxImERKT_S2_S2_ = comdat any

$_ZNKSt12_Vector_baseIN10tensorflow6TensorESaIS1_EE19_M_get_Tp_allocatorEv = comdat any

$_ZNSt6vectorIN10tensorflow6TensorESaIS1_EE11_S_max_sizeERKS2_ = comdat any

$_ZNSt16allocator_traitsISaIN10tensorflow6TensorEEE8max_sizeERKS2_ = comdat any

$_ZNK9__gnu_cxx13new_allocatorIN10tensorflow6TensorEE8max_sizeEv = comdat any

$_ZN9__gnu_cxx13new_allocatorIN10tensorflow6TensorEE9constructIS2_JRKS2_EEEvPT_DpOT0_ = comdat any

$_ZNSt6vectorIN10tensorflow6TensorESaIS1_EE15_M_erase_at_endEPS1_ = comdat any

$_ZN10tensorflow13DecodeVariantINS_6TensorEEEbPNS_17VariantTensorDataEPT_ = comdat any

$_ZN10tensorflow13EncodeVariantINS_6TensorEEEvRKT_PNS_17VariantTensorDataE = comdat any

$_ZN10tensorflow18DebugStringVariantINS_6TensorEEENSt7__cxx1112basic_stringIcSt11char_traitsIcESaIcEEERKT_ = comdat any

$_ZN10tensorflow22DebugStringVariantImplINS_6TensorEEENSt7__cxx1112basic_stringIcSt11char_traitsIcESaIcEEERKT_NS_19DebugStringResolverIS8_Lb1EXsr10can_strcatINSt5decayIS8_E4typeEEE5valueEEE = comdat any

$_ZNK10tensorflow6Tensor11DebugStringB5cxx11Ev = comdat any

$_ZN10tensorflow7Variant5ValueINS_6TensorEEC2IJS2_EEENS0_10in_place_tEDpOT_ = comdat any

$_ZN10tensorflow7Variant14ValueInterfaceC2Ev = comdat any

$_ZN10tensorflow7Variant14ValueInterfaceD0Ev = comdat any

$_ZStlsIN3tsl8internal15LogMessageFatalEA44_cEOT_S5_RKT0_ = comdat any

$_ZNK10tensorflow9TypeIndex4nameEv = comdat any

$_ZStlsIN3tsl8internal15LogMessageFatalEPKcEOT_S6_RKT0_ = comdat any

$_ZStlsIN3tsl8internal15LogMessageFatalEA6_cEOT_S5_RKT0_ = comdat any

$_ZN10tensorflow6TensoraSEOS0_ = comdat any

$_ZN10tensorflow11TensorShapeaSEOS0_ = comdat any

$_ZN10tensorflow15TensorShapeBaseINS_11TensorShapeEEaSEOS2_ = comdat any

$_ZN10tensorflow14TensorShapeRepaSEOS0_ = comdat any

$_ZN10tensorflow7Variant5ValueINS_6TensorEEC2IJRKS2_EEENS0_10in_place_tEDpOT_ = comdat any

$_ZSt11make_uniqueIN10tensorflow7Variant5ValueINS0_6TensorEEEJNS1_10in_place_tERKS3_EENSt9_MakeUniqIT_E15__single_objectEDpOT0_ = comdat any

$_ZSt7forwardIN10tensorflow7Variant10in_place_tEEOT_RNSt16remove_referenceIS3_E4typeE = comdat any

$_ZNSt10unique_ptrIN10tensorflow7Variant5ValueINS0_6TensorEEESt14default_deleteIS4_EEC2IS6_vEEPS4_ = comdat any

$_ZNSt15__uniq_ptr_dataIN10tensorflow7Variant5ValueINS0_6TensorEEESt14default_deleteIS4_ELb1ELb1EECI2St15__uniq_ptr_implIS4_S6_EEPS4_ = comdat any

$_ZNSt15__uniq_ptr_implIN10tensorflow7Variant5ValueINS0_6TensorEEESt14default_deleteIS4_EEC2EPS4_ = comdat any

$_ZNSt5tupleIJPN10tensorflow7Variant5ValueINS0_6TensorEEESt14default_deleteIS4_EEEC2ILb1ELb1EEEv = comdat any

$_ZNSt11_Tuple_implILm0EJPN10tensorflow7Variant5ValueINS0_6TensorEEESt14default_deleteIS4_EEEC2Ev = comdat any

$_ZNSt11_Tuple_implILm1EJSt14default_deleteIN10tensorflow7Variant5ValueINS1_6TensorEEEEEEC2Ev = comdat any

$_ZNSt10_Head_baseILm0EPN10tensorflow7Variant5ValueINS0_6TensorEEELb0EEC2Ev = comdat any

$_ZNSt10_Head_baseILm1ESt14default_deleteIN10tensorflow7Variant5ValueINS1_6TensorEEEELb1EEC2Ev = comdat any

$_ZN10tensorflow9TypeIndex4MakeINS_6TensorEEES0_v = comdat any

$_ZNKSt9type_info4nameEv = comdat any

$_ZN3tsl6Hash64EPKc = comdat any

$_ZN10tensorflow9TypeIndexC2EmPKc = comdat any

$_ZN3tsl6Hash64EPKcm = comdat any

$_ZNSt15__uniq_ptr_implIN10tensorflow7Variant5ValueINS0_6TensorEEESt14default_deleteIS4_EE10_M_deleterEv = comdat any

$_ZSt3getILm1EJPN10tensorflow7Variant5ValueINS0_6TensorEEESt14default_deleteIS4_EEERNSt13tuple_elementIXT_ESt5tupleIJDpT0_EEE4typeERSC_ = comdat any

$_ZSt12__get_helperILm1ESt14default_deleteIN10tensorflow7Variant5ValueINS1_6TensorEEEEJEERT0_RSt11_Tuple_implIXT_EJS7_DpT1_EE = comdat any

$_ZNSt11_Tuple_implILm1EJSt14default_deleteIN10tensorflow7Variant5ValueINS1_6TensorEEEEEE7_M_headERS7_ = comdat any

$_ZNSt10_Head_baseILm1ESt14default_deleteIN10tensorflow7Variant5ValueINS1_6TensorEEEELb1EE7_M_headERS7_ = comdat any

$_ZSt3getILm0EJPN10tensorflow7Variant5ValueINS0_6TensorEEESt14default_deleteIS4_EEERNSt13tuple_elementIXT_ESt5tupleIJDpT0_EEE4typeERSC_ = comdat any

$_ZSt12__get_helperILm0EPN10tensorflow7Variant5ValueINS0_6TensorEEEJSt14default_deleteIS4_EEERT0_RSt11_Tuple_implIXT_EJS8_DpT1_EE = comdat any

$_ZNSt11_Tuple_implILm0EJPN10tensorflow7Variant5ValueINS0_6TensorEEESt14default_deleteIS4_EEE7_M_headERS8_ = comdat any

$_ZNSt10_Head_baseILm0EPN10tensorflow7Variant5ValueINS0_6TensorEEELb0EE7_M_headERS6_ = comdat any

$_ZNSt10unique_ptrIN10tensorflow7Variant5ValueINS0_6TensorEEESt14default_deleteIS4_EE7releaseEv = comdat any

$_ZSt7forwardISt14default_deleteIN10tensorflow7Variant5ValueINS1_6TensorEEEEEOT_RNSt16remove_referenceIS7_E4typeE = comdat any

$_ZNSt15__uniq_ptr_dataIN10tensorflow7Variant14ValueInterfaceESt14default_deleteIS2_ELb1ELb1EECI2St15__uniq_ptr_implIS2_S4_EIS3_INS1_5ValueINS0_6TensorEEEEEEPS2_OT_ = comdat any

$_ZNSt15__uniq_ptr_implIN10tensorflow7Variant14ValueInterfaceESt14default_deleteIS2_EEC2IS3_INS1_5ValueINS0_6TensorEEEEEEPS2_OT_ = comdat any

$_ZNSt5tupleIJPN10tensorflow7Variant14ValueInterfaceESt14default_deleteIS2_EEEC2IRS3_S4_INS1_5ValueINS0_6TensorEEEELb1EEEOT_OT0_ = comdat any

$_ZSt7forwardIRPN10tensorflow7Variant14ValueInterfaceEEOT_RNSt16remove_referenceIS5_E4typeE = comdat any

$_ZNSt11_Tuple_implILm0EJPN10tensorflow7Variant14ValueInterfaceESt14default_deleteIS2_EEEC2IRS3_JS4_INS1_5ValueINS0_6TensorEEEEEvEEOT_DpOT0_ = comdat any

$_ZNSt11_Tuple_implILm1EJSt14default_deleteIN10tensorflow7Variant14ValueInterfaceEEEEC2IS0_INS2_5ValueINS1_6TensorEEEEEEOT_ = comdat any

$_ZNSt10_Head_baseILm0EPN10tensorflow7Variant14ValueInterfaceELb0EEC2IRS3_EEOT_ = comdat any

$_ZNSt10_Head_baseILm1ESt14default_deleteIN10tensorflow7Variant14ValueInterfaceEELb1EEC2IS0_INS2_5ValueINS1_6TensorEEEEEEOT_ = comdat any

$_ZNSt14default_deleteIN10tensorflow7Variant14ValueInterfaceEEC2INS1_5ValueINS0_6TensorEEEvEERKS_IT_E = comdat any

$_ZNSt15__uniq_ptr_implIN10tensorflow7Variant5ValueINS0_6TensorEEESt14default_deleteIS4_EE7releaseEv = comdat any

$_ZN10tensorflow11TensorShapeCI2NS_15TensorShapeBaseIS0_EEENS_8DataTypeE = comdat any

$_ZN10tensorflow9TypeIndex4MakeINS_22VariantTensorDataProtoEEES0_v = comdat any

$_ZNK10tensorflow7Variant6TypeIdEv = comdat any

$_ZNK10tensorflow9TypeIndexneERKS0_ = comdat any

$_ZN10tensorflow7Variant8GetValueEv = comdat any

$_ZSt9addressofIN10tensorflow22VariantTensorDataProtoEEPT_RS2_ = comdat any

$_ZSt11__addressofIN10tensorflow22VariantTensorDataProtoEEPT_RS2_ = comdat any

$_ZN10tensorflow9TypeIndex4MakeIvEES0_v = comdat any

$_ZN10tensorflow9TypeIndexC2ERKS0_ = comdat any

$_ZN3tsl8internal17MakeCheckOpStringIPN10tensorflow7VariantEDnEEPNSt7__cxx1112basic_stringIcSt11char_traitsIcESaIcEEERKT_RKT0_PKc = comdat any

$_ZN3tsl8internal22MakeCheckOpValueStringIPN10tensorflow7VariantEEEvPSoRKT_ = comdat any

$_ZNSt14_Function_base13_Base_managerIZN10tensorflow35variant_op_registry_fn_registration30UnaryVariantDecodeRegistrationINS1_6TensorEEC1ERKNSt7__cxx1112basic_stringIcSt11char_traitsIcESaIcEEEEUlPNS1_7VariantEE_E9_M_createISG_EEvRSt9_Any_dataOT_St17integral_constantIbLb0EE = comdat any

$_ZZN10tensorflow35variant_op_registry_fn_registration30UnaryVariantDecodeRegistrationINS_6TensorEEC1ERKNSt7__cxx1112basic_stringIcSt11char_traitsIcESaIcEEEENUlPNS_7VariantEE_C2EOSE_ = comdat any

$_ZN3tsl8internal21GetReferenceableValueIN10tensorflow8DataTypeEEERKT_S6_ = comdat any

$_ZN3tsl8internal12Check_EQImplIN10tensorflow8DataTypeES3_EEPNSt7__cxx1112basic_stringIcSt11char_traitsIcESaIcEEERKT_RKT0_PKc = comdat any

$_ZStlsIN3tsl8internal15LogMessageFatalEA2_cEOT_S5_RKT0_ = comdat any

$_ZStlsIN3tsl8internal15LogMessageFatalEA16_cEOT_S5_RKT0_ = comdat any

$_ZN3tsl8internal17MakeCheckOpStringIN10tensorflow8DataTypeES3_EEPNSt7__cxx1112basic_stringIcSt11char_traitsIcESaIcEEERKT_RKT0_PKc = comdat any

$_ZN3tsl8internal22MakeCheckOpValueStringIN10tensorflow8DataTypeEEEvPSoRKT_ = comdat any

$_ZStlsIN3tsl8internal15LogMessageFatalEA27_cEOT_S5_RKT0_ = comdat any

$_ZStlsIN3tsl8internal15LogMessageFatalEA7_cEOT_S5_RKT0_ = comdat any

$_ZStlsIN3tsl8internal15LogMessageFatalEPvEOT_S5_RKT0_ = comdat any

$_ZN3tsl8internal12Check_EQImplIilEEPNSt7__cxx1112basic_stringIcSt11char_traitsIcESaIcEEERKT_RKT0_PKc = comdat any

$_ZStlsIN3tsl8internal15LogMessageFatalEA31_cEOT_S5_RKT0_ = comdat any

$_ZTIN10tensorflow23AbstractTensorInterfaceE = comdat any

$_ZTSN10tensorflow23AbstractTensorInterfaceE = comdat any

$_ZTVN10tensorflow23AbstractTensorInterfaceE = comdat any

$_ZTV16TF_ManagedBuffer = comdat any

$_ZTI16TF_ManagedBuffer = comdat any

$_ZTVN3tsl4core10RefCountedE = comdat any

$_ZTIN3tsl4core10RefCountedE = comdat any

$_ZTSN3tsl4core10RefCountedE = comdat any

$_ZTS16TF_ManagedBuffer = comdat any

$_ZTIZN10tensorflow35variant_op_registry_fn_registration30UnaryVariantDecodeRegistrationINS_6TensorEEC1ERKNSt7__cxx1112basic_stringIcSt11char_traitsIcESaIcEEEEUlPNS_7VariantEE_ = comdat any

$_ZTSZN10tensorflow35variant_op_registry_fn_registration30UnaryVariantDecodeRegistrationINS_6TensorEEC1ERKNSt7__cxx1112basic_stringIcSt11char_traitsIcESaIcEEEEUlPNS_7VariantEE_ = comdat any

$_ZTVN10tensorflow7Variant5ValueINS_6TensorEEE = comdat any

$_ZTIN10tensorflow7Variant5ValueINS_6TensorEEE = comdat any

$_ZTVN10tensorflow7Variant14ValueInterfaceE = comdat any

$_ZTIN10tensorflow7Variant14ValueInterfaceE = comdat any

$_ZTSN10tensorflow7Variant14ValueInterfaceE = comdat any

$_ZTIN10tensorflow6TensorE = comdat any

$_ZTSN10tensorflow6TensorE = comdat any

$_ZTSN10tensorflow7Variant5ValueINS_6TensorEEE = comdat any

@__const.main.dims = private unnamed_addr constant [2 x i64] [i64 2, i64 2], align 16
@.str = private unnamed_addr constant [12 x i8] c"tensor_data\00", align 1
@.str.1 = private unnamed_addr constant [10 x i8] c"t != NULL\00", align 1
@.str.2 = private unnamed_addr constant [76 x i8] c"/home/mushfiqur/Desktop/Github/tensorflow/tensorflow/c/tf_tensor_harness.cc\00", align 1
@__PRETTY_FUNCTION__.main = private unnamed_addr constant [11 x i8] c"int main()\00", align 1
@_ZTVN10tensorflow15TensorInterfaceE = dso_local unnamed_addr constant { [14 x i8*] } { [14 x i8*] [i8* null, i8* bitcast ({ i8*, i8*, i8* }* @_ZTIN10tensorflow15TensorInterfaceE to i8*), i8* bitcast (void (%"class.tensorflow::TensorInterface"*)* @_ZN10tensorflow15TensorInterface7ReleaseEv to i8*), i8* bitcast (i32 (%"class.tensorflow::TensorInterface"*)* @_ZNK10tensorflow15TensorInterface4TypeEv to i8*), i8* bitcast (i32 (%"class.tensorflow::TensorInterface"*)* @_ZNK10tensorflow15TensorInterface7NumDimsEv to i8*), i8* bitcast (i64 (%"class.tensorflow::TensorInterface"*, i32)* @_ZNK10tensorflow15TensorInterface3DimEi to i8*), i8* bitcast (i64 (%"class.tensorflow::TensorInterface"*)* @_ZNK10tensorflow15TensorInterface11NumElementsEv to i8*), i8* bitcast (i64 (%"class.tensorflow::TensorInterface"*)* @_ZNK10tensorflow15TensorInterface8ByteSizeEv to i8*), i8* bitcast (i8* (%"class.tensorflow::TensorInterface"*)* @_ZNK10tensorflow15TensorInterface4DataEv to i8*), i8* bitcast (i1 (%"class.tensorflow::TensorInterface"*)* @_ZNK10tensorflow15TensorInterface9IsAlignedEv to i8*), i8* bitcast (i1 (%"class.tensorflow::TensorInterface"*)* @_ZNK10tensorflow15TensorInterface7CanMoveEv to i8*), i8* bitcast (void (%"class.std::__cxx11::basic_string"*, %"class.tensorflow::TensorInterface"*)* @_ZNK10tensorflow15TensorInterface14SummarizeValueB5cxx11Ev to i8*), i8* bitcast (void (%"class.tensorflow::TensorInterface"*)* @_ZN10tensorflow15TensorInterfaceD2Ev to i8*), i8* bitcast (void (%"class.tensorflow::TensorInterface"*)* @_ZN10tensorflow15TensorInterfaceD0Ev to i8*)] }, align 8
@_ZTIN10tensorflow15TensorInterfaceE = dso_local constant { i8*, i8*, i8* } { i8* bitcast (i8** getelementptr inbounds (i8*, i8** @_ZTVN10__cxxabiv120__si_class_type_infoE, i64 2) to i8*), i8* getelementptr inbounds ([32 x i8], [32 x i8]* @_ZTSN10tensorflow15TensorInterfaceE, i32 0, i32 0), i8* bitcast ({ i8*, i8* }* @_ZTIN10tensorflow23AbstractTensorInterfaceE to i8*) }, align 8
@_ZTVN10__cxxabiv120__si_class_type_infoE = external dso_local global i8*
@_ZTSN10tensorflow15TensorInterfaceE = dso_local constant [32 x i8] c"N10tensorflow15TensorInterfaceE\00", align 1
@_ZTIN10tensorflow23AbstractTensorInterfaceE = linkonce_odr dso_local constant { i8*, i8* } { i8* bitcast (i8** getelementptr inbounds (i8*, i8** @_ZTVN10__cxxabiv117__class_type_infoE, i64 2) to i8*), i8* getelementptr inbounds ([40 x i8], [40 x i8]* @_ZTSN10tensorflow23AbstractTensorInterfaceE, i32 0, i32 0) }, comdat, align 8
@_ZTVN10__cxxabiv117__class_type_infoE = external dso_local global i8*
@_ZTSN10tensorflow23AbstractTensorInterfaceE = linkonce_odr dso_local constant [40 x i8] c"N10tensorflow23AbstractTensorInterfaceE\00", comdat, align 1
@llvm.global_ctors = appending global [2 x { i32, void ()*, i8* }] [{ i32, void ()*, i8* } { i32 65535, void ()* @_GLOBAL__sub_I_tf_tensor.cc, i8* null }, { i32, void ()*, i8* } { i32 65535, void ()* @_GLOBAL__sub_I_tensor.cc, i8* null }]
@_ZStL8__ioinit = internal global %"class.std::ios_base::Init" zeroinitializer, align 1
@.str.9 = private unnamed_addr constant [42 x i8] c"basic_string::_M_construct null not valid\00", align 1
@.str.2.1 = private unnamed_addr constant [17 x i8] c"TensorFlow C Api\00", align 1
@.str.3 = private unnamed_addr constant [18 x i8] c"TF_AllocateTensor\00", align 1
@_ZTVN10tensorflow23AbstractTensorInterfaceE = linkonce_odr dso_local unnamed_addr constant { [14 x i8*] } { [14 x i8*] [i8* null, i8* bitcast ({ i8*, i8* }* @_ZTIN10tensorflow23AbstractTensorInterfaceE to i8*), i8* bitcast (void ()* @__cxa_pure_virtual to i8*), i8* bitcast (void ()* @__cxa_pure_virtual to i8*), i8* bitcast (void ()* @__cxa_pure_virtual to i8*), i8* bitcast (void ()* @__cxa_pure_virtual to i8*), i8* bitcast (void ()* @__cxa_pure_virtual to i8*), i8* bitcast (void ()* @__cxa_pure_virtual to i8*), i8* bitcast (void ()* @__cxa_pure_virtual to i8*), i8* bitcast (void ()* @__cxa_pure_virtual to i8*), i8* bitcast (void ()* @__cxa_pure_virtual to i8*), i8* bitcast (void ()* @__cxa_pure_virtual to i8*), i8* bitcast (void (%"class.tensorflow::AbstractTensorInterface"*)* @_ZN10tensorflow23AbstractTensorInterfaceD2Ev to i8*), i8* bitcast (void (%"class.tensorflow::AbstractTensorInterface"*)* @_ZN10tensorflow23AbstractTensorInterfaceD0Ev to i8*)] }, comdat, align 8
@.str.6 = private unnamed_addr constant [16 x i8] c"ref_.load() > 0\00", align 1
@.str.1.2 = private unnamed_addr constant [98 x i8] c"/home/mushfiqur/Desktop/Github/tensorflow/third_party/xla/third_party/tsl/tsl/platform/refcount.h\00", align 1
@.str.5 = private unnamed_addr constant [49 x i8] c"cannot create std::vector larger than max_size()\00", align 1
@_ZTV16TF_ManagedBuffer = linkonce_odr dso_local unnamed_addr constant { [11 x i8*] } { [11 x i8*] [i8* null, i8* bitcast ({ i8*, i8*, i8* }* @_ZTI16TF_ManagedBuffer to i8*), i8* bitcast (void (%class.TF_ManagedBuffer*)* @_ZN16TF_ManagedBufferD2Ev to i8*), i8* bitcast (void (%class.TF_ManagedBuffer*)* @_ZN16TF_ManagedBufferD0Ev to i8*), i8* bitcast (void (%"class.tsl::core::RefCounted"*)* @_ZNK3tsl4core10RefCounted13NotifyDeletedEv to i8*), i8* bitcast (i64 (%class.TF_ManagedBuffer*)* @_ZNK16TF_ManagedBuffer4sizeEv to i8*), i8* bitcast (%"class.tensorflow::TensorBuffer"* (%class.TF_ManagedBuffer*)* @_ZN16TF_ManagedBuffer11root_bufferEv to i8*), i8* bitcast (void (%class.TF_ManagedBuffer*, %"class.tensorflow::AllocationDescription"*)* @_ZNK16TF_ManagedBuffer25FillAllocationDescriptionEPN10tensorflow21AllocationDescriptionE to i8*), i8* bitcast (i1 (%"class.tensorflow::TensorBuffer"*, i64*)* @_ZNK10tensorflow12TensorBuffer17GetAllocatedBytesEPm to i8*), i8* bitcast (i1 (%class.TF_ManagedBuffer*)* @_ZNK16TF_ManagedBuffer10OwnsMemoryEv to i8*), i8* bitcast (i32 (%"class.tensorflow::TensorBuffer"*)* @_ZNK10tensorflow12TensorBuffer13GetMemoryTypeEv to i8*)] }, comdat, align 8
@_ZTI16TF_ManagedBuffer = linkonce_odr dso_local constant { i8*, i8*, i8* } { i8* bitcast (i8** getelementptr inbounds (i8*, i8** @_ZTVN10__cxxabiv120__si_class_type_infoE, i64 2) to i8*), i8* getelementptr inbounds ([19 x i8], [19 x i8]* @_ZTS16TF_ManagedBuffer, i32 0, i32 0), i8* bitcast ({ i8*, i8*, i8* }* @_ZTIN10tensorflow12TensorBufferE to i8*) }, comdat, align 8
@_ZTVN3tsl4core10RefCountedE = linkonce_odr dso_local unnamed_addr constant { [5 x i8*] } { [5 x i8*] [i8* null, i8* bitcast ({ i8*, i8* }* @_ZTIN3tsl4core10RefCountedE to i8*), i8* bitcast (void (%"class.tsl::core::RefCounted"*)* @_ZN3tsl4core10RefCountedD2Ev to i8*), i8* bitcast (void (%"class.tsl::core::RefCounted"*)* @_ZN3tsl4core10RefCountedD0Ev to i8*), i8* bitcast (void (%"class.tsl::core::RefCounted"*)* @_ZNK3tsl4core10RefCounted13NotifyDeletedEv to i8*)] }, comdat, align 8
@.str.4 = private unnamed_addr constant [17 x i8] c"ref_.load() == 0\00", align 1
@_ZTIN3tsl4core10RefCountedE = linkonce_odr dso_local constant { i8*, i8* } { i8* bitcast (i8** getelementptr inbounds (i8*, i8** @_ZTVN10__cxxabiv117__class_type_infoE, i64 2) to i8*), i8* getelementptr inbounds ([24 x i8], [24 x i8]* @_ZTSN3tsl4core10RefCountedE, i32 0, i32 0) }, comdat, align 8
@_ZTSN3tsl4core10RefCountedE = linkonce_odr dso_local constant [24 x i8] c"N3tsl4core10RefCountedE\00", comdat, align 1
@_ZTS16TF_ManagedBuffer = linkonce_odr dso_local constant [19 x i8] c"16TF_ManagedBuffer\00", comdat, align 1
@.str.4.7 = private unnamed_addr constant [13 x i8] c"TF_NewTensor\00", align 1
@_ZN10tensorflowL22kDataTypesCanUseMemcpyE = internal constant %"struct.absl::lts_20250127::container_internal::internal_compressed_tuple::Storage.4" { i64 8586788734 }, align 8
@.str.7 = private unnamed_addr constant [31 x i8] c"static_cast<uint32>(dt) < 256u\00", align 1
@.str.8 = private unnamed_addr constant [83 x i8] c"/home/mushfiqur/Desktop/Github/tensorflow/tensorflow/core/framework/tensor_shape.h\00", align 1
@.str.10 = private unnamed_addr constant [47 x i8] c"f == nullptr || dynamic_cast<To>(f) != nullptr\00", align 1
@.str.11 = private unnamed_addr constant [91 x i8] c"/home/mushfiqur/Desktop/Github/tensorflow/third_party/xla/xla/tsl/platform/default/casts.h\00", align 1
@__PRETTY_FUNCTION__._ZN10tensorflow9down_castIPNS_15TensorInterfaceENS_23AbstractTensorInterfaceEEET_PT0_ = private unnamed_addr constant [114 x i8] c"To tensorflow::down_cast(From *) [To = tensorflow::TensorInterface *, From = tensorflow::AbstractTensorInterface]\00", align 1
@_ZTVN10tensorflow12TensorBufferE = dso_local unnamed_addr constant { [11 x i8*] } { [11 x i8*] [i8* null, i8* bitcast ({ i8*, i8*, i8* }* @_ZTIN10tensorflow12TensorBufferE to i8*), i8* bitcast (void (%"class.tensorflow::TensorBuffer"*)* @_ZN10tensorflow12TensorBufferD2Ev to i8*), i8* bitcast (void (%"class.tensorflow::TensorBuffer"*)* @_ZN10tensorflow12TensorBufferD0Ev to i8*), i8* bitcast (void (%"class.tsl::core::RefCounted"*)* @_ZNK3tsl4core10RefCounted13NotifyDeletedEv to i8*), i8* bitcast (void ()* @__cxa_pure_virtual to i8*), i8* bitcast (void ()* @__cxa_pure_virtual to i8*), i8* bitcast (void ()* @__cxa_pure_virtual to i8*), i8* bitcast (i1 (%"class.tensorflow::TensorBuffer"*, i64*)* @_ZNK10tensorflow12TensorBuffer17GetAllocatedBytesEPm to i8*), i8* bitcast (i1 (%"class.tensorflow::TensorBuffer"*)* @_ZNK10tensorflow12TensorBuffer10OwnsMemoryEv to i8*), i8* bitcast (i32 (%"class.tensorflow::TensorBuffer"*)* @_ZNK10tensorflow12TensorBuffer13GetMemoryTypeEv to i8*)] }, align 8
@_ZTIN10tensorflow12TensorBufferE = dso_local constant { i8*, i8*, i8* } { i8* bitcast (i8** getelementptr inbounds (i8*, i8** @_ZTVN10__cxxabiv120__si_class_type_infoE, i64 2) to i8*), i8* getelementptr inbounds ([29 x i8], [29 x i8]* @_ZTSN10tensorflow12TensorBufferE, i32 0, i32 0), i8* bitcast ({ i8*, i8* }* @_ZTIN3tsl4core10RefCountedE to i8*) }, align 8
@_ZTSN10tensorflow12TensorBufferE = dso_local constant [29 x i8] c"N10tensorflow12TensorBufferE\00", align 1
@.str.3.16 = private unnamed_addr constant [19 x i8] c"tensorflow::Tensor\00", align 1
@_ZN10tensorflowL38register_unary_variant_op_decoder_fn_0E = internal global %"class.std::ios_base::Init" zeroinitializer, align 1
@_ZTIZN10tensorflow35variant_op_registry_fn_registration30UnaryVariantDecodeRegistrationINS_6TensorEEC1ERKNSt7__cxx1112basic_stringIcSt11char_traitsIcESaIcEEEEUlPNS_7VariantEE_ = linkonce_odr dso_local constant { i8*, i8* } { i8* bitcast (i8** getelementptr inbounds (i8*, i8** @_ZTVN10__cxxabiv117__class_type_infoE, i64 2) to i8*), i8* getelementptr inbounds ([172 x i8], [172 x i8]* @_ZTSZN10tensorflow35variant_op_registry_fn_registration30UnaryVariantDecodeRegistrationINS_6TensorEEC1ERKNSt7__cxx1112basic_stringIcSt11char_traitsIcESaIcEEEEUlPNS_7VariantEE_, i32 0, i32 0) }, comdat, align 8
@_ZTSZN10tensorflow35variant_op_registry_fn_registration30UnaryVariantDecodeRegistrationINS_6TensorEEC1ERKNSt7__cxx1112basic_stringIcSt11char_traitsIcESaIcEEEEUlPNS_7VariantEE_ = linkonce_odr dso_local constant [172 x i8] c"ZN10tensorflow35variant_op_registry_fn_registration30UnaryVariantDecodeRegistrationINS_6TensorEEC1ERKNSt7__cxx1112basic_stringIcSt11char_traitsIcESaIcEEEEUlPNS_7VariantEE_\00", comdat, align 1
@.str.16 = private unnamed_addr constant [13 x i8] c"v != nullptr\00", align 1
@.str.17 = private unnamed_addr constant [90 x i8] c"/home/mushfiqur/Desktop/Github/tensorflow/tensorflow/core/framework/variant_op_registry.h\00", align 1
@_ZTVN10tensorflow7Variant5ValueINS_6TensorEEE = linkonce_odr dso_local unnamed_addr constant { [17 x i8*] } { [17 x i8*] [i8* null, i8* bitcast ({ i8*, i8*, i8* }* @_ZTIN10tensorflow7Variant5ValueINS_6TensorEEE to i8*), i8* bitcast (void (%"class.tensorflow::TensorInterface"*)* @_ZN10tensorflow7Variant5ValueINS_6TensorEED2Ev to i8*), i8* bitcast (void (%"class.tensorflow::TensorInterface"*)* @_ZN10tensorflow7Variant5ValueINS_6TensorEED0Ev to i8*), i8* bitcast (void (%"class.std::basic_string_view"*, %"class.tensorflow::TensorInterface"*)* @_ZNK10tensorflow7Variant5ValueINS_6TensorEE6TypeIdEv to i8*), i8* bitcast (i8* (%"class.tensorflow::TensorInterface"*)* @_ZN10tensorflow7Variant5ValueINS_6TensorEE6RawPtrEv to i8*), i8* bitcast (i8* (%"class.tensorflow::TensorInterface"*)* @_ZNK10tensorflow7Variant5ValueINS_6TensorEE6RawPtrEv to i8*), i8* bitcast (void (%"class.std::unique_ptr"*, %"class.tensorflow::TensorInterface"*)* @_ZNK10tensorflow7Variant5ValueINS_6TensorEE5CloneEv to i8*), i8* bitcast (void (%"class.tensorflow::TensorInterface"*, %"class.tensorflow::AbstractTensorInterface"*)* @_ZNK10tensorflow7Variant5ValueINS_6TensorEE9CloneIntoEPNS0_14ValueInterfaceE to i8*), i8* bitcast (void (%"class.tensorflow::TensorInterface"*, %"class.tensorflow::AbstractTensorInterface"*)* @_ZN10tensorflow7Variant5ValueINS_6TensorEE10MoveAssignEPNS0_14ValueInterfaceE to i8*), i8* bitcast (void (%"class.tensorflow::TensorInterface"*, %"class.tensorflow::AbstractTensorInterface"*)* @_ZN10tensorflow7Variant5ValueINS_6TensorEE8MoveIntoEPNS0_14ValueInterfaceE to i8*), i8* bitcast (void (%"class.std::__cxx11::basic_string"*, %"class.tensorflow::TensorInterface"*)* @_ZNK10tensorflow7Variant5ValueINS_6TensorEE8TypeNameB5cxx11Ev to i8*), i8* bitcast (void (%"class.std::__cxx11::basic_string"*, %"class.tensorflow::TensorInterface"*)* @_ZNK10tensorflow7Variant5ValueINS_6TensorEE11DebugStringB5cxx11Ev to i8*), i8* bitcast (void (%"class.tensorflow::TensorInterface"*, %"class.tensorflow::VariantTensorData"*)* @_ZNK10tensorflow7Variant5ValueINS_6TensorEE6EncodeEPNS_17VariantTensorDataE to i8*), i8* bitcast (i1 (%"class.tensorflow::TensorInterface"*, %"class.tensorflow::VariantTensorData"*)* @_ZN10tensorflow7Variant5ValueINS_6TensorEE6DecodeENS_17VariantTensorDataE to i8*), i8* bitcast (void (%"class.tensorflow::TensorInterface"*, %"class.std::__cxx11::basic_string"*)* @_ZNK10tensorflow7Variant5ValueINS_6TensorEE6EncodeEPNSt7__cxx1112basic_stringIcSt11char_traitsIcESaIcEEE to i8*), i8* bitcast (i1 (%"class.tensorflow::TensorInterface"*, %"class.std::__cxx11::basic_string"*)* @_ZN10tensorflow7Variant5ValueINS_6TensorEE6DecodeENSt7__cxx1112basic_stringIcSt11char_traitsIcESaIcEEE to i8*)] }, comdat, align 8
@_ZTIN10tensorflow7Variant5ValueINS_6TensorEEE = linkonce_odr dso_local constant { i8*, i8*, i8* } { i8* bitcast (i8** getelementptr inbounds (i8*, i8** @_ZTVN10__cxxabiv120__si_class_type_infoE, i64 2) to i8*), i8* getelementptr inbounds ([42 x i8], [42 x i8]* @_ZTSN10tensorflow7Variant5ValueINS_6TensorEEE, i32 0, i32 0), i8* bitcast ({ i8*, i8* }* @_ZTIN10tensorflow7Variant14ValueInterfaceE to i8*) }, comdat, align 8
@.str.24 = private unnamed_addr constant [44 x i8] c"shape.num_elements() == other.NumElements()\00", align 1
@.str.25 = private unnamed_addr constant [77 x i8] c"/home/mushfiqur/Desktop/Github/tensorflow/tensorflow/core/framework/tensor.h\00", align 1
@.str.18 = private unnamed_addr constant [12 x i8] c"old_ref > 0\00", align 1
@.str.1.17 = private unnamed_addr constant [98 x i8] c"/home/mushfiqur/Desktop/Github/tensorflow/third_party/xla/third_party/tsl/tsl/platform/refcount.h\00", align 1
@.str.26 = private unnamed_addr constant [92 x i8] c"/home/mushfiqur/Desktop/Github/tensorflow/tensorflow/core/framework/variant_encode_decode.h\00", align 1
@.str.27 = private unnamed_addr constant [30 x i8] c"Check failed: buf != nullptr \00", align 1
@.str.23 = private unnamed_addr constant [26 x i8] c"vector::_M_realloc_insert\00", align 1
@_ZTVN10tensorflow7Variant14ValueInterfaceE = linkonce_odr dso_local unnamed_addr constant { [17 x i8*] } { [17 x i8*] [i8* null, i8* bitcast ({ i8*, i8* }* @_ZTIN10tensorflow7Variant14ValueInterfaceE to i8*), i8* bitcast (void (%"class.tensorflow::AbstractTensorInterface"*)* @_ZN10tensorflow7Variant14ValueInterfaceD2Ev to i8*), i8* bitcast (void (%"class.tensorflow::AbstractTensorInterface"*)* @_ZN10tensorflow7Variant14ValueInterfaceD0Ev to i8*), i8* bitcast (void ()* @__cxa_pure_virtual to i8*), i8* bitcast (void ()* @__cxa_pure_virtual to i8*), i8* bitcast (void ()* @__cxa_pure_virtual to i8*), i8* bitcast (void ()* @__cxa_pure_virtual to i8*), i8* bitcast (void ()* @__cxa_pure_virtual to i8*), i8* bitcast (void ()* @__cxa_pure_virtual to i8*), i8* bitcast (void ()* @__cxa_pure_virtual to i8*), i8* bitcast (void ()* @__cxa_pure_virtual to i8*), i8* bitcast (void ()* @__cxa_pure_virtual to i8*), i8* bitcast (void ()* @__cxa_pure_virtual to i8*), i8* bitcast (void ()* @__cxa_pure_virtual to i8*), i8* bitcast (void ()* @__cxa_pure_virtual to i8*), i8* bitcast (void ()* @__cxa_pure_virtual to i8*)] }, comdat, align 8
@_ZTIN10tensorflow7Variant14ValueInterfaceE = linkonce_odr dso_local constant { i8*, i8* } { i8* bitcast (i8** getelementptr inbounds (i8*, i8** @_ZTVN10__cxxabiv117__class_type_infoE, i64 2) to i8*), i8* getelementptr inbounds ([39 x i8], [39 x i8]* @_ZTSN10tensorflow7Variant14ValueInterfaceE, i32 0, i32 0) }, comdat, align 8
@_ZTSN10tensorflow7Variant14ValueInterfaceE = linkonce_odr dso_local constant [39 x i8] c"N10tensorflow7Variant14ValueInterfaceE\00", comdat, align 1
@.str.19 = private unnamed_addr constant [78 x i8] c"/home/mushfiqur/Desktop/Github/tensorflow/tensorflow/core/framework/variant.h\00", align 1
@.str.20 = private unnamed_addr constant [44 x i8] c"Check failed: TypeId() == memory->TypeId() \00", align 1
@.str.21 = private unnamed_addr constant [6 x i8] c" vs. \00", align 1
@_ZTIN10tensorflow6TensorE = linkonce_odr dso_local constant { i8*, i8* } { i8* bitcast (i8** getelementptr inbounds (i8*, i8** @_ZTVN10__cxxabiv117__class_type_infoE, i64 2) to i8*), i8* getelementptr inbounds ([22 x i8], [22 x i8]* @_ZTSN10tensorflow6TensorE, i32 0, i32 0) }, comdat, align 8
@_ZTSN10tensorflow6TensorE = linkonce_odr dso_local constant [22 x i8] c"N10tensorflow6TensorE\00", comdat, align 1
@_ZTSN10tensorflow7Variant5ValueINS_6TensorEEE = linkonce_odr dso_local constant [42 x i8] c"N10tensorflow7Variant5ValueINS_6TensorEEE\00", comdat, align 1
@_ZTIv = external dso_local constant i8*
@_ZTIN10tensorflow22VariantTensorDataProtoE = external dso_local constant i8*
@_ZStL8__ioinit.18 = internal global %"class.std::ios_base::Init" zeroinitializer, align 1
@.str.4.19 = private unnamed_addr constant [26 x i8] c"dtype() == expected_dtype\00", align 1
@.str.5.20 = private unnamed_addr constant [78 x i8] c"/home/mushfiqur/Desktop/Github/tensorflow/tensorflow/core/framework/tensor.cc\00", align 1
@.str.6.21 = private unnamed_addr constant [2 x i8] c" \00", align 1
@.str.7.22 = private unnamed_addr constant [16 x i8] c" expected, got \00", align 1
@.str.8.23 = private unnamed_addr constant [27 x i8] c"Check failed: IsAligned() \00", align 1
@.str.9.24 = private unnamed_addr constant [7 x i8] c"ptr = \00", align 1
@.str.10.25 = private unnamed_addr constant [27 x i8] c"Aligned and single element\00", align 1
@.str.11.26 = private unnamed_addr constant [19 x i8] c"1 == NumElements()\00", align 1
@.str.12 = private unnamed_addr constant [31 x i8] c"Must have a one element tensor\00", align 1
@__dso_handle = hidden global i8* null, align 8, !dbg !0
@.str.13 = private unnamed_addr constant [67 x i8] c"/home/mushfiqur/tools/klee/runtime/Intrinsic/klee_div_zero_check.c\00", align 1
@.str.1.14 = private unnamed_addr constant [15 x i8] c"divide by zero\00", align 1
@.str.2.15 = private unnamed_addr constant [8 x i8] c"div.err\00", align 1
@.str.22 = private unnamed_addr constant [8 x i8] c"IGNORED\00", align 1
@.str.1.23 = private unnamed_addr constant [16 x i8] c"overshift error\00", align 1
@.str.2.24 = private unnamed_addr constant [14 x i8] c"overshift.err\00", align 1

@_ZN10tensorflow6TensorC1Ev = dso_local unnamed_addr alias void (%"class.tensorflow::Tensor"*), void (%"class.tensorflow::Tensor"*)* @_ZN10tensorflow6TensorC2Ev
@_ZN10tensorflow6TensorC1ENS_8DataTypeE = dso_local unnamed_addr alias void (%"class.tensorflow::Tensor"*, i32), void (%"class.tensorflow::Tensor"*, i32)* @_ZN10tensorflow6TensorC2ENS_8DataTypeE

; Function Attrs: noinline nounwind optnone uwtable
define dso_local void @_Z17dummy_deallocatorPvmS_(i8* %data, i64 %len, i8* %arg) #0 {
entry:
  %data.addr = alloca i8*, align 8
  %len.addr = alloca i64, align 8
  %arg.addr = alloca i8*, align 8
  store i8* %data, i8** %data.addr, align 8
  store i64 %len, i64* %len.addr, align 8
  store i8* %arg, i8** %arg.addr, align 8
  ret void
}

; Function Attrs: noinline norecurse optnone uwtable
define dso_local i32 @main() #1 {
entry:
  call void @klee.ctor_stub()
  %retval = alloca i32, align 4
  %dims = alloca [2 x i64], align 16
  %num_dims = alloca i32, align 4
  %len = alloca i64, align 8
  %data = alloca float*, align 8
  %t = alloca %struct.TF_Tensor*, align 8
  store i32 0, i32* %retval, align 4
  %0 = bitcast [2 x i64]* %dims to i8*
  %1 = call i8* @memcpy(i8* %0, i8* bitcast ([2 x i64]* @__const.main.dims to i8*), i64 16)
  store i32 2, i32* %num_dims, align 4
  store i64 16, i64* %len, align 8
  %2 = load i64, i64* %len, align 8
  %call = call noalias i8* @malloc(i64 %2) #11
  %3 = bitcast i8* %call to float*
  store float* %3, float** %data, align 8
  %4 = load float*, float** %data, align 8
  %5 = bitcast float* %4 to i8*
  %6 = load i64, i64* %len, align 8
  call void @klee_make_symbolic(i8* %5, i64 %6, i8* getelementptr inbounds ([12 x i8], [12 x i8]* @.str, i64 0, i64 0))
  %arraydecay = getelementptr inbounds [2 x i64], [2 x i64]* %dims, i64 0, i64 0
  %7 = load i32, i32* %num_dims, align 4
  %8 = load float*, float** %data, align 8
  %9 = bitcast float* %8 to i8*
  %10 = load i64, i64* %len, align 8
  %call1 = call %struct.TF_Tensor* @TF_NewTensor(i32 1, i64* %arraydecay, i32 %7, i8* %9, i64 %10, void (i8*, i64, i8*)* @_Z17dummy_deallocatorPvmS_, i8* null)
  store %struct.TF_Tensor* %call1, %struct.TF_Tensor** %t, align 8
  %11 = load %struct.TF_Tensor*, %struct.TF_Tensor** %t, align 8
  %cmp = icmp ne %struct.TF_Tensor* %11, null
  br i1 %cmp, label %cond.true, label %cond.false

cond.true:                                        ; preds = %entry
  br label %cond.end

cond.false:                                       ; preds = %entry
  call void @__assert_fail(i8* getelementptr inbounds ([10 x i8], [10 x i8]* @.str.1, i64 0, i64 0), i8* getelementptr inbounds ([76 x i8], [76 x i8]* @.str.2, i64 0, i64 0), i32 28, i8* getelementptr inbounds ([11 x i8], [11 x i8]* @__PRETTY_FUNCTION__.main, i64 0, i64 0)) #16
  unreachable

12:                                               ; No predecessors!
  br label %cond.end

cond.end:                                         ; preds = %12, %cond.true
  ret i32 0
}

; Function Attrs: argmemonly nounwind willreturn
declare void @llvm.memcpy.p0i8.p0i8.i64(i8* noalias nocapture writeonly, i8* noalias nocapture readonly, i64, i1 immarg) #2

; Function Attrs: nounwind
declare dso_local noalias i8* @malloc(i64) #3

declare dso_local void @klee_make_symbolic(i8*, i64, i8*) #4

; Function Attrs: noreturn nounwind
declare dso_local void @__assert_fail(i8*, i8*, i32, i8*) #5

; Function Attrs: noinline optnone uwtable
define dso_local void @_ZN10tensorflow15TensorInterface7ReleaseEv(%"class.tensorflow::TensorInterface"* %this) unnamed_addr #6 align 2 {
entry:
  %this.addr = alloca %"class.tensorflow::TensorInterface"*, align 8
  %data = alloca %struct.TF_TString*, align 8
  %i = alloca i64, align 8
  store %"class.tensorflow::TensorInterface"* %this, %"class.tensorflow::TensorInterface"** %this.addr, align 8
  %this1 = load %"class.tensorflow::TensorInterface"*, %"class.tensorflow::TensorInterface"** %this.addr, align 8
  %0 = bitcast %"class.tensorflow::TensorInterface"* %this1 to i32 (%"class.tensorflow::TensorInterface"*)***
  %vtable = load i32 (%"class.tensorflow::TensorInterface"*)**, i32 (%"class.tensorflow::TensorInterface"*)*** %0, align 8
  %vfn = getelementptr inbounds i32 (%"class.tensorflow::TensorInterface"*)*, i32 (%"class.tensorflow::TensorInterface"*)** %vtable, i64 1
  %1 = load i32 (%"class.tensorflow::TensorInterface"*)*, i32 (%"class.tensorflow::TensorInterface"*)** %vfn, align 8
  %call = call i32 %1(%"class.tensorflow::TensorInterface"* %this1)
  %cmp = icmp eq i32 %call, 7
  br i1 %cmp, label %land.lhs.true, label %if.end19

land.lhs.true:                                    ; preds = %entry
  %2 = bitcast %"class.tensorflow::TensorInterface"* %this1 to i64 (%"class.tensorflow::TensorInterface"*)***
  %vtable2 = load i64 (%"class.tensorflow::TensorInterface"*)**, i64 (%"class.tensorflow::TensorInterface"*)*** %2, align 8
  %vfn3 = getelementptr inbounds i64 (%"class.tensorflow::TensorInterface"*)*, i64 (%"class.tensorflow::TensorInterface"*)** %vtable2, i64 4
  %3 = load i64 (%"class.tensorflow::TensorInterface"*)*, i64 (%"class.tensorflow::TensorInterface"*)** %vfn3, align 8
  %call4 = call i64 %3(%"class.tensorflow::TensorInterface"* %this1)
  %cmp5 = icmp sgt i64 %call4, 0
  br i1 %cmp5, label %if.then, label %if.end19

if.then:                                          ; preds = %land.lhs.true
  %4 = bitcast %"class.tensorflow::TensorInterface"* %this1 to i8* (%"class.tensorflow::TensorInterface"*)***
  %vtable6 = load i8* (%"class.tensorflow::TensorInterface"*)**, i8* (%"class.tensorflow::TensorInterface"*)*** %4, align 8
  %vfn7 = getelementptr inbounds i8* (%"class.tensorflow::TensorInterface"*)*, i8* (%"class.tensorflow::TensorInterface"*)** %vtable6, i64 6
  %5 = load i8* (%"class.tensorflow::TensorInterface"*)*, i8* (%"class.tensorflow::TensorInterface"*)** %vfn7, align 8
  %call8 = call i8* %5(%"class.tensorflow::TensorInterface"* %this1)
  %6 = bitcast i8* %call8 to %struct.TF_TString*
  store %struct.TF_TString* %6, %struct.TF_TString** %data, align 8
  %7 = bitcast %"class.tensorflow::TensorInterface"* %this1 to i1 (%"class.tensorflow::TensorInterface"*)***
  %vtable9 = load i1 (%"class.tensorflow::TensorInterface"*)**, i1 (%"class.tensorflow::TensorInterface"*)*** %7, align 8
  %vfn10 = getelementptr inbounds i1 (%"class.tensorflow::TensorInterface"*)*, i1 (%"class.tensorflow::TensorInterface"*)** %vtable9, i64 8
  %8 = load i1 (%"class.tensorflow::TensorInterface"*)*, i1 (%"class.tensorflow::TensorInterface"*)** %vfn10, align 8
  %call11 = call zeroext i1 %8(%"class.tensorflow::TensorInterface"* %this1)
  br i1 %call11, label %land.lhs.true12, label %if.end

land.lhs.true12:                                  ; preds = %if.then
  %9 = load %struct.TF_TString*, %struct.TF_TString** %data, align 8
  %cmp13 = icmp ne %struct.TF_TString* %9, null
  br i1 %cmp13, label %if.then14, label %if.end

if.then14:                                        ; preds = %land.lhs.true12
  store i64 0, i64* %i, align 8
  br label %for.cond

for.cond:                                         ; preds = %for.inc, %if.then14
  %10 = load i64, i64* %i, align 8
  %11 = bitcast %"class.tensorflow::TensorInterface"* %this1 to i64 (%"class.tensorflow::TensorInterface"*)***
  %vtable15 = load i64 (%"class.tensorflow::TensorInterface"*)**, i64 (%"class.tensorflow::TensorInterface"*)*** %11, align 8
  %vfn16 = getelementptr inbounds i64 (%"class.tensorflow::TensorInterface"*)*, i64 (%"class.tensorflow::TensorInterface"*)** %vtable15, i64 4
  %12 = load i64 (%"class.tensorflow::TensorInterface"*)*, i64 (%"class.tensorflow::TensorInterface"*)** %vfn16, align 8
  %call17 = call i64 %12(%"class.tensorflow::TensorInterface"* %this1)
  %cmp18 = icmp slt i64 %10, %call17
  br i1 %cmp18, label %for.body, label %for.end

for.body:                                         ; preds = %for.cond
  %13 = load %struct.TF_TString*, %struct.TF_TString** %data, align 8
  %14 = load i64, i64* %i, align 8
  %arrayidx = getelementptr inbounds %struct.TF_TString, %struct.TF_TString* %13, i64 %14
  call void @_ZL18TF_TString_DeallocP10TF_TString(%struct.TF_TString* %arrayidx)
  br label %for.inc

for.inc:                                          ; preds = %for.body
  %15 = load i64, i64* %i, align 8
  %inc = add nsw i64 %15, 1
  store i64 %inc, i64* %i, align 8
  br label %for.cond

for.end:                                          ; preds = %for.cond
  br label %if.end

if.end:                                           ; preds = %for.end, %land.lhs.true12, %if.then
  br label %if.end19

if.end19:                                         ; preds = %if.end, %land.lhs.true, %entry
  %isnull = icmp eq %"class.tensorflow::TensorInterface"* %this1, null
  br i1 %isnull, label %delete.end, label %delete.notnull

delete.notnull:                                   ; preds = %if.end19
  %16 = bitcast %"class.tensorflow::TensorInterface"* %this1 to void (%"class.tensorflow::TensorInterface"*)***
  %vtable20 = load void (%"class.tensorflow::TensorInterface"*)**, void (%"class.tensorflow::TensorInterface"*)*** %16, align 8
  %vfn21 = getelementptr inbounds void (%"class.tensorflow::TensorInterface"*)*, void (%"class.tensorflow::TensorInterface"*)** %vtable20, i64 11
  %17 = load void (%"class.tensorflow::TensorInterface"*)*, void (%"class.tensorflow::TensorInterface"*)** %vfn21, align 8
  call void %17(%"class.tensorflow::TensorInterface"* %this1) #11
  br label %delete.end

delete.end:                                       ; preds = %delete.notnull, %if.end19
  ret void
}

; Function Attrs: noinline optnone uwtable
define dso_local i32 @_ZNK10tensorflow15TensorInterface4TypeEv(%"class.tensorflow::TensorInterface"* %this) unnamed_addr #6 align 2 {
entry:
  %this.addr = alloca %"class.tensorflow::TensorInterface"*, align 8
  store %"class.tensorflow::TensorInterface"* %this, %"class.tensorflow::TensorInterface"** %this.addr, align 8
  %this1 = load %"class.tensorflow::TensorInterface"*, %"class.tensorflow::TensorInterface"** %this.addr, align 8
  %tensor_ = getelementptr inbounds %"class.tensorflow::TensorInterface", %"class.tensorflow::TensorInterface"* %this1, i32 0, i32 1
  %call = call i32 @_ZNK10tensorflow6Tensor5dtypeEv(%"class.tensorflow::Tensor"* %tensor_)
  ret i32 %call
}

; Function Attrs: noinline optnone uwtable
define dso_local i32 @_ZNK10tensorflow15TensorInterface7NumDimsEv(%"class.tensorflow::TensorInterface"* %this) unnamed_addr #6 align 2 {
entry:
  %this.addr = alloca %"class.tensorflow::TensorInterface"*, align 8
  store %"class.tensorflow::TensorInterface"* %this, %"class.tensorflow::TensorInterface"** %this.addr, align 8
  %this1 = load %"class.tensorflow::TensorInterface"*, %"class.tensorflow::TensorInterface"** %this.addr, align 8
  %tensor_ = getelementptr inbounds %"class.tensorflow::TensorInterface", %"class.tensorflow::TensorInterface"* %this1, i32 0, i32 1
  %call = call i32 @_ZNK10tensorflow6Tensor4dimsEv(%"class.tensorflow::Tensor"* %tensor_)
  ret i32 %call
}

; Function Attrs: noinline optnone uwtable
define dso_local i64 @_ZNK10tensorflow15TensorInterface3DimEi(%"class.tensorflow::TensorInterface"* %this, i32 %dim_index) unnamed_addr #6 align 2 {
entry:
  %this.addr = alloca %"class.tensorflow::TensorInterface"*, align 8
  %dim_index.addr = alloca i32, align 4
  store %"class.tensorflow::TensorInterface"* %this, %"class.tensorflow::TensorInterface"** %this.addr, align 8
  store i32 %dim_index, i32* %dim_index.addr, align 4
  %this1 = load %"class.tensorflow::TensorInterface"*, %"class.tensorflow::TensorInterface"** %this.addr, align 8
  %tensor_ = getelementptr inbounds %"class.tensorflow::TensorInterface", %"class.tensorflow::TensorInterface"* %this1, i32 0, i32 1
  %0 = load i32, i32* %dim_index.addr, align 4
  %call = call i64 @_ZNK10tensorflow6Tensor8dim_sizeEi(%"class.tensorflow::Tensor"* %tensor_, i32 %0)
  ret i64 %call
}

; Function Attrs: noinline optnone uwtable
define dso_local i64 @_ZNK10tensorflow15TensorInterface11NumElementsEv(%"class.tensorflow::TensorInterface"* %this) unnamed_addr #6 align 2 {
entry:
  %this.addr = alloca %"class.tensorflow::TensorInterface"*, align 8
  store %"class.tensorflow::TensorInterface"* %this, %"class.tensorflow::TensorInterface"** %this.addr, align 8
  %this1 = load %"class.tensorflow::TensorInterface"*, %"class.tensorflow::TensorInterface"** %this.addr, align 8
  %tensor_ = getelementptr inbounds %"class.tensorflow::TensorInterface", %"class.tensorflow::TensorInterface"* %this1, i32 0, i32 1
  %call = call i64 @_ZNK10tensorflow6Tensor11NumElementsEv(%"class.tensorflow::Tensor"* %tensor_)
  ret i64 %call
}

; Function Attrs: noinline optnone uwtable
define dso_local i64 @_ZNK10tensorflow15TensorInterface8ByteSizeEv(%"class.tensorflow::TensorInterface"* %this) unnamed_addr #6 align 2 {
entry:
  %this.addr = alloca %"class.tensorflow::TensorInterface"*, align 8
  store %"class.tensorflow::TensorInterface"* %this, %"class.tensorflow::TensorInterface"** %this.addr, align 8
  %this1 = load %"class.tensorflow::TensorInterface"*, %"class.tensorflow::TensorInterface"** %this.addr, align 8
  %tensor_ = getelementptr inbounds %"class.tensorflow::TensorInterface", %"class.tensorflow::TensorInterface"* %this1, i32 0, i32 1
  %call = call %"class.tensorflow::TensorBuffer"* @_ZN10tensorflow10TensorCApi6BufferERKNS_6TensorE(%"class.tensorflow::Tensor"* nonnull align 8 dereferenceable(32) %tensor_)
  %0 = bitcast %"class.tensorflow::TensorBuffer"* %call to i64 (%"class.tensorflow::TensorBuffer"*)***
  %vtable = load i64 (%"class.tensorflow::TensorBuffer"*)**, i64 (%"class.tensorflow::TensorBuffer"*)*** %0, align 8
  %vfn = getelementptr inbounds i64 (%"class.tensorflow::TensorBuffer"*)*, i64 (%"class.tensorflow::TensorBuffer"*)** %vtable, i64 3
  %1 = load i64 (%"class.tensorflow::TensorBuffer"*)*, i64 (%"class.tensorflow::TensorBuffer"*)** %vfn, align 8
  %call2 = call i64 %1(%"class.tensorflow::TensorBuffer"* %call)
  ret i64 %call2
}

; Function Attrs: noinline optnone uwtable
define dso_local i8* @_ZNK10tensorflow15TensorInterface4DataEv(%"class.tensorflow::TensorInterface"* %this) unnamed_addr #6 align 2 {
entry:
  %this.addr = alloca %"class.tensorflow::TensorInterface"*, align 8
  store %"class.tensorflow::TensorInterface"* %this, %"class.tensorflow::TensorInterface"** %this.addr, align 8
  %this1 = load %"class.tensorflow::TensorInterface"*, %"class.tensorflow::TensorInterface"** %this.addr, align 8
  %tensor_ = getelementptr inbounds %"class.tensorflow::TensorInterface", %"class.tensorflow::TensorInterface"* %this1, i32 0, i32 1
  %call = call %"class.tensorflow::TensorBuffer"* @_ZN10tensorflow10TensorCApi6BufferERKNS_6TensorE(%"class.tensorflow::Tensor"* nonnull align 8 dereferenceable(32) %tensor_)
  %call2 = call i8* @_ZNK10tensorflow12TensorBuffer4dataEv(%"class.tensorflow::TensorBuffer"* %call)
  ret i8* %call2
}

; Function Attrs: noinline optnone uwtable
define dso_local zeroext i1 @_ZNK10tensorflow15TensorInterface9IsAlignedEv(%"class.tensorflow::TensorInterface"* %this) unnamed_addr #6 align 2 {
entry:
  %this.addr = alloca %"class.tensorflow::TensorInterface"*, align 8
  store %"class.tensorflow::TensorInterface"* %this, %"class.tensorflow::TensorInterface"** %this.addr, align 8
  %this1 = load %"class.tensorflow::TensorInterface"*, %"class.tensorflow::TensorInterface"** %this.addr, align 8
  %tensor_ = getelementptr inbounds %"class.tensorflow::TensorInterface", %"class.tensorflow::TensorInterface"* %this1, i32 0, i32 1
  %call = call zeroext i1 @_ZNK10tensorflow6Tensor9IsAlignedEv(%"class.tensorflow::Tensor"* %tensor_)
  ret i1 %call
}

; Function Attrs: noinline optnone uwtable
define dso_local zeroext i1 @_ZNK10tensorflow15TensorInterface7CanMoveEv(%"class.tensorflow::TensorInterface"* %this) unnamed_addr #6 align 2 {
entry:
  %retval = alloca i1, align 1
  %this.addr = alloca %"class.tensorflow::TensorInterface"*, align 8
  %buf = alloca %"class.tensorflow::TensorBuffer"*, align 8
  store %"class.tensorflow::TensorInterface"* %this, %"class.tensorflow::TensorInterface"** %this.addr, align 8
  %this1 = load %"class.tensorflow::TensorInterface"*, %"class.tensorflow::TensorInterface"** %this.addr, align 8
  %tensor_ = getelementptr inbounds %"class.tensorflow::TensorInterface", %"class.tensorflow::TensorInterface"* %this1, i32 0, i32 1
  %call = call %"class.tensorflow::TensorBuffer"* @_ZN10tensorflow10TensorCApi6BufferERKNS_6TensorE(%"class.tensorflow::Tensor"* nonnull align 8 dereferenceable(32) %tensor_)
  store %"class.tensorflow::TensorBuffer"* %call, %"class.tensorflow::TensorBuffer"** %buf, align 8
  %0 = load %"class.tensorflow::TensorBuffer"*, %"class.tensorflow::TensorBuffer"** %buf, align 8
  %1 = bitcast %"class.tensorflow::TensorBuffer"* %0 to %"class.tsl::core::RefCounted"*
  %call2 = call zeroext i1 @_ZNK3tsl4core10RefCounted13RefCountIsOneEv(%"class.tsl::core::RefCounted"* %1)
  br i1 %call2, label %land.lhs.true, label %if.end

land.lhs.true:                                    ; preds = %entry
  %2 = load %"class.tensorflow::TensorBuffer"*, %"class.tensorflow::TensorBuffer"** %buf, align 8
  %3 = bitcast %"class.tensorflow::TensorBuffer"* %2 to %"class.tensorflow::TensorBuffer"* (%"class.tensorflow::TensorBuffer"*)***
  %vtable = load %"class.tensorflow::TensorBuffer"* (%"class.tensorflow::TensorBuffer"*)**, %"class.tensorflow::TensorBuffer"* (%"class.tensorflow::TensorBuffer"*)*** %3, align 8
  %vfn = getelementptr inbounds %"class.tensorflow::TensorBuffer"* (%"class.tensorflow::TensorBuffer"*)*, %"class.tensorflow::TensorBuffer"* (%"class.tensorflow::TensorBuffer"*)** %vtable, i64 4
  %4 = load %"class.tensorflow::TensorBuffer"* (%"class.tensorflow::TensorBuffer"*)*, %"class.tensorflow::TensorBuffer"* (%"class.tensorflow::TensorBuffer"*)** %vfn, align 8
  %call3 = call %"class.tensorflow::TensorBuffer"* %4(%"class.tensorflow::TensorBuffer"* %2)
  %5 = bitcast %"class.tensorflow::TensorBuffer"* %call3 to %"class.tsl::core::RefCounted"*
  %call4 = call zeroext i1 @_ZNK3tsl4core10RefCounted13RefCountIsOneEv(%"class.tsl::core::RefCounted"* %5)
  br i1 %call4, label %land.lhs.true5, label %if.end

land.lhs.true5:                                   ; preds = %land.lhs.true
  %6 = load %"class.tensorflow::TensorBuffer"*, %"class.tensorflow::TensorBuffer"** %buf, align 8
  %7 = bitcast %"class.tensorflow::TensorBuffer"* %6 to i1 (%"class.tensorflow::TensorBuffer"*)***
  %vtable6 = load i1 (%"class.tensorflow::TensorBuffer"*)**, i1 (%"class.tensorflow::TensorBuffer"*)*** %7, align 8
  %vfn7 = getelementptr inbounds i1 (%"class.tensorflow::TensorBuffer"*)*, i1 (%"class.tensorflow::TensorBuffer"*)** %vtable6, i64 7
  %8 = load i1 (%"class.tensorflow::TensorBuffer"*)*, i1 (%"class.tensorflow::TensorBuffer"*)** %vfn7, align 8
  %call8 = call zeroext i1 %8(%"class.tensorflow::TensorBuffer"* %6)
  br i1 %call8, label %if.then, label %if.end

if.then:                                          ; preds = %land.lhs.true5
  store i1 true, i1* %retval, align 1
  br label %return

if.end:                                           ; preds = %land.lhs.true5, %land.lhs.true, %entry
  store i1 false, i1* %retval, align 1
  br label %return

return:                                           ; preds = %if.end, %if.then
  %9 = load i1, i1* %retval, align 1
  ret i1 %9
}

; Function Attrs: noinline optnone uwtable
define dso_local void @_ZNK10tensorflow15TensorInterface14SummarizeValueB5cxx11Ev(%"class.std::__cxx11::basic_string"* noalias sret align 8 %agg.result, %"class.tensorflow::TensorInterface"* %this) unnamed_addr #6 align 2 {
entry:
  %result.ptr = alloca i8*, align 8
  %this.addr = alloca %"class.tensorflow::TensorInterface"*, align 8
  %0 = bitcast %"class.std::__cxx11::basic_string"* %agg.result to i8*
  store i8* %0, i8** %result.ptr, align 8
  store %"class.tensorflow::TensorInterface"* %this, %"class.tensorflow::TensorInterface"** %this.addr, align 8
  %this1 = load %"class.tensorflow::TensorInterface"*, %"class.tensorflow::TensorInterface"** %this.addr, align 8
  %tensor_ = getelementptr inbounds %"class.tensorflow::TensorInterface", %"class.tensorflow::TensorInterface"* %this1, i32 0, i32 1
  call void @_ZNK10tensorflow6Tensor14SummarizeValueB5cxx11Elb(%"class.std::__cxx11::basic_string"* sret align 8 %agg.result, %"class.tensorflow::Tensor"* %tensor_, i64 3, i1 zeroext true)
  ret void
}

; Function Attrs: noinline nounwind optnone uwtable
define linkonce_odr dso_local void @_ZN10tensorflow15TensorInterfaceD2Ev(%"class.tensorflow::TensorInterface"* %this) unnamed_addr #0 comdat align 2 {
entry:
  %this.addr = alloca %"class.tensorflow::TensorInterface"*, align 8
  store %"class.tensorflow::TensorInterface"* %this, %"class.tensorflow::TensorInterface"** %this.addr, align 8
  %this1 = load %"class.tensorflow::TensorInterface"*, %"class.tensorflow::TensorInterface"** %this.addr, align 8
  %0 = bitcast %"class.tensorflow::TensorInterface"* %this1 to i32 (...)***
  store i32 (...)** bitcast (i8** getelementptr inbounds ({ [14 x i8*] }, { [14 x i8*] }* @_ZTVN10tensorflow15TensorInterfaceE, i32 0, inrange i32 0, i32 2) to i32 (...)**), i32 (...)*** %0, align 8
  %tensor_ = getelementptr inbounds %"class.tensorflow::TensorInterface", %"class.tensorflow::TensorInterface"* %this1, i32 0, i32 1
  call void @_ZN10tensorflow6TensorD1Ev(%"class.tensorflow::Tensor"* %tensor_) #11
  %1 = bitcast %"class.tensorflow::TensorInterface"* %this1 to %"class.tensorflow::AbstractTensorInterface"*
  call void @_ZN10tensorflow23AbstractTensorInterfaceD2Ev(%"class.tensorflow::AbstractTensorInterface"* %1) #11
  ret void
}

; Function Attrs: noinline nounwind optnone uwtable
define linkonce_odr dso_local void @_ZN10tensorflow15TensorInterfaceD0Ev(%"class.tensorflow::TensorInterface"* %this) unnamed_addr #0 comdat align 2 {
entry:
  %this.addr = alloca %"class.tensorflow::TensorInterface"*, align 8
  store %"class.tensorflow::TensorInterface"* %this, %"class.tensorflow::TensorInterface"** %this.addr, align 8
  %this1 = load %"class.tensorflow::TensorInterface"*, %"class.tensorflow::TensorInterface"** %this.addr, align 8
  call void @_ZN10tensorflow15TensorInterfaceD2Ev(%"class.tensorflow::TensorInterface"* %this1) #11
  %0 = bitcast %"class.tensorflow::TensorInterface"* %this1 to i8*
  call void @_ZdlPv(i8* %0) #19
  ret void
}

; Function Attrs: nobuiltin nounwind
declare dso_local void @_ZdlPv(i8*) #7

; Function Attrs: nounwind
declare dso_local void @_ZN10tensorflow6TensorD1Ev(%"class.tensorflow::Tensor"*) unnamed_addr #3

; Function Attrs: noinline nounwind optnone uwtable
define linkonce_odr dso_local void @_ZN10tensorflow23AbstractTensorInterfaceD2Ev(%"class.tensorflow::AbstractTensorInterface"* %this) unnamed_addr #0 comdat align 2 {
entry:
  %this.addr = alloca %"class.tensorflow::AbstractTensorInterface"*, align 8
  store %"class.tensorflow::AbstractTensorInterface"* %this, %"class.tensorflow::AbstractTensorInterface"** %this.addr, align 8
  %this1 = load %"class.tensorflow::AbstractTensorInterface"*, %"class.tensorflow::AbstractTensorInterface"** %this.addr, align 8
  ret void
}

declare dso_local void @_ZNK10tensorflow6Tensor14SummarizeValueB5cxx11Elb(%"class.std::__cxx11::basic_string"* sret align 8, %"class.tensorflow::Tensor"*, i64, i1 zeroext) #4

; Function Attrs: noinline nounwind optnone uwtable
define linkonce_odr dso_local %"class.tensorflow::TensorBuffer"* @_ZN10tensorflow10TensorCApi6BufferERKNS_6TensorE(%"class.tensorflow::Tensor"* nonnull align 8 dereferenceable(32) %tensor) #0 comdat align 2 {
entry:
  %tensor.addr = alloca %"class.tensorflow::Tensor"*, align 8
  store %"class.tensorflow::Tensor"* %tensor, %"class.tensorflow::Tensor"** %tensor.addr, align 8
  %0 = load %"class.tensorflow::Tensor"*, %"class.tensorflow::Tensor"** %tensor.addr, align 8
  %buf_ = getelementptr inbounds %"class.tensorflow::Tensor", %"class.tensorflow::Tensor"* %0, i32 0, i32 1
  %1 = load %"class.tensorflow::TensorBuffer"*, %"class.tensorflow::TensorBuffer"** %buf_, align 8
  ret %"class.tensorflow::TensorBuffer"* %1
}

; Function Attrs: noinline nounwind optnone uwtable
define linkonce_odr dso_local zeroext i1 @_ZNK3tsl4core10RefCounted13RefCountIsOneEv(%"class.tsl::core::RefCounted"* %this) #0 comdat align 2 personality i32 (...)* @__gxx_personality_v0 {
entry:
  %this.addr.i = alloca %"struct.absl::lts_20250127::container_internal::internal_compressed_tuple::Storage.4"*, align 8
  %__m.addr.i = alloca i32, align 4
  %__b.i = alloca i32, align 4
  %atomic-temp.i = alloca i64, align 8
  %this.addr = alloca %"class.tsl::core::RefCounted"*, align 8
  store %"class.tsl::core::RefCounted"* %this, %"class.tsl::core::RefCounted"** %this.addr, align 8
  %this1 = load %"class.tsl::core::RefCounted"*, %"class.tsl::core::RefCounted"** %this.addr, align 8
  %ref_ = getelementptr inbounds %"class.tsl::core::RefCounted", %"class.tsl::core::RefCounted"* %this1, i32 0, i32 1
  %0 = bitcast %"struct.absl::lts_20250127::container_internal::internal_compressed_tuple::CompressedTupleImpl"* %ref_ to %"struct.absl::lts_20250127::container_internal::internal_compressed_tuple::Storage.4"*
  store %"struct.absl::lts_20250127::container_internal::internal_compressed_tuple::Storage.4"* %0, %"struct.absl::lts_20250127::container_internal::internal_compressed_tuple::Storage.4"** %this.addr.i, align 8
  store i32 2, i32* %__m.addr.i, align 4
  %this1.i = load %"struct.absl::lts_20250127::container_internal::internal_compressed_tuple::Storage.4"*, %"struct.absl::lts_20250127::container_internal::internal_compressed_tuple::Storage.4"** %this.addr.i, align 8
  %1 = load i32, i32* %__m.addr.i, align 4
  %call.i = invoke i32 @_ZStanSt12memory_orderSt23__memory_order_modifier(i32 %1, i32 65535)
          to label %invoke.cont.i unwind label %terminate.lpad.i

invoke.cont.i:                                    ; preds = %entry
  store i32 %call.i, i32* %__b.i, align 4
  %_M_i.i = getelementptr inbounds %"struct.absl::lts_20250127::container_internal::internal_compressed_tuple::Storage.4", %"struct.absl::lts_20250127::container_internal::internal_compressed_tuple::Storage.4"* %this1.i, i32 0, i32 0
  %2 = load i32, i32* %__m.addr.i, align 4
  switch i32 %2, label %monotonic.i [
    i32 1, label %acquire.i
    i32 2, label %acquire.i
    i32 5, label %seqcst.i
  ]

monotonic.i:                                      ; preds = %invoke.cont.i
  %3 = load i64, i64* %_M_i.i, align 8
  store i64 %3, i64* %atomic-temp.i, align 8
  br label %_ZNKSt13__atomic_baseIlE4loadESt12memory_order.exit

acquire.i:                                        ; preds = %invoke.cont.i, %invoke.cont.i
  %4 = load i64, i64* %_M_i.i, align 8
  store i64 %4, i64* %atomic-temp.i, align 8
  br label %_ZNKSt13__atomic_baseIlE4loadESt12memory_order.exit

seqcst.i:                                         ; preds = %invoke.cont.i
  %5 = load i64, i64* %_M_i.i, align 8
  store i64 %5, i64* %atomic-temp.i, align 8
  br label %_ZNKSt13__atomic_baseIlE4loadESt12memory_order.exit

terminate.lpad.i:                                 ; preds = %entry
  %6 = landingpad { i8*, i32 }
          catch i8* null
  %7 = extractvalue { i8*, i32 } %6, 0
  call void @__clang_call_terminate(i8* %7) #16
  unreachable

_ZNKSt13__atomic_baseIlE4loadESt12memory_order.exit: ; preds = %monotonic.i, %acquire.i, %seqcst.i
  %8 = load i64, i64* %atomic-temp.i, align 8
  %cmp = icmp eq i64 %8, 1
  ret i1 %cmp
}

declare dso_local i32 @__gxx_personality_v0(...)

; Function Attrs: noinline nounwind optnone uwtable
define linkonce_odr dso_local i32 @_ZStanSt12memory_orderSt23__memory_order_modifier(i32 %__m, i32 %__mod) #0 comdat {
entry:
  %__m.addr = alloca i32, align 4
  %__mod.addr = alloca i32, align 4
  store i32 %__m, i32* %__m.addr, align 4
  store i32 %__mod, i32* %__mod.addr, align 4
  %0 = load i32, i32* %__m.addr, align 4
  %1 = load i32, i32* %__mod.addr, align 4
  %and = and i32 %0, %1
  ret i32 %and
}

; Function Attrs: noinline noreturn nounwind
define linkonce_odr hidden void @__clang_call_terminate(i8* %0) #8 comdat {
  %2 = call i8* @__cxa_begin_catch(i8* %0) #11
  call void @_ZSt9terminatev() #16
  unreachable
}

declare dso_local i8* @__cxa_begin_catch(i8*)

declare dso_local void @_ZSt9terminatev()

; Function Attrs: noinline optnone uwtable
define linkonce_odr dso_local zeroext i1 @_ZNK10tensorflow6Tensor9IsAlignedEv(%"class.tensorflow::Tensor"* %this) #6 comdat align 2 {
entry:
  %this.addr = alloca %"class.tensorflow::Tensor"*, align 8
  %ptr = alloca i8*, align 8
  store %"class.tensorflow::Tensor"* %this, %"class.tensorflow::Tensor"** %this.addr, align 8
  %this1 = load %"class.tensorflow::Tensor"*, %"class.tensorflow::Tensor"** %this.addr, align 8
  %call = call i8* @_ZNK10tensorflow6Tensor4baseIvEEPT_v(%"class.tensorflow::Tensor"* %this1)
  store i8* %call, i8** %ptr, align 8
  %call2 = call i32 @_ZNK10tensorflow6Tensor5dtypeEv(%"class.tensorflow::Tensor"* %this1)
  %cmp = icmp eq i32 %call2, 7
  br i1 %cmp, label %lor.end, label %lor.lhs.false

lor.lhs.false:                                    ; preds = %entry
  %call3 = call i64 @_ZNK10tensorflow6Tensor11NumElementsEv(%"class.tensorflow::Tensor"* %this1)
  %cmp4 = icmp eq i64 %call3, 0
  br i1 %cmp4, label %lor.end, label %lor.rhs

lor.rhs:                                          ; preds = %lor.lhs.false
  %0 = load i8*, i8** %ptr, align 8
  %1 = ptrtoint i8* %0 to i64
  %rem = srem i64 %1, 16
  %cmp5 = icmp eq i64 %rem, 0
  br label %lor.end

lor.end:                                          ; preds = %lor.rhs, %lor.lhs.false, %entry
  %2 = phi i1 [ true, %lor.lhs.false ], [ true, %entry ], [ %cmp5, %lor.rhs ]
  ret i1 %2
}

; Function Attrs: noinline optnone uwtable
define linkonce_odr dso_local i8* @_ZNK10tensorflow6Tensor4baseIvEEPT_v(%"class.tensorflow::Tensor"* %this) #6 comdat align 2 {
entry:
  %this.addr = alloca %"class.tensorflow::Tensor"*, align 8
  store %"class.tensorflow::Tensor"* %this, %"class.tensorflow::Tensor"** %this.addr, align 8
  %this1 = load %"class.tensorflow::Tensor"*, %"class.tensorflow::Tensor"** %this.addr, align 8
  %buf_ = getelementptr inbounds %"class.tensorflow::Tensor", %"class.tensorflow::Tensor"* %this1, i32 0, i32 1
  %0 = load %"class.tensorflow::TensorBuffer"*, %"class.tensorflow::TensorBuffer"** %buf_, align 8
  %cmp = icmp eq %"class.tensorflow::TensorBuffer"* %0, null
  br i1 %cmp, label %cond.true, label %cond.false

cond.true:                                        ; preds = %entry
  br label %cond.end

cond.false:                                       ; preds = %entry
  %buf_2 = getelementptr inbounds %"class.tensorflow::Tensor", %"class.tensorflow::Tensor"* %this1, i32 0, i32 1
  %1 = load %"class.tensorflow::TensorBuffer"*, %"class.tensorflow::TensorBuffer"** %buf_2, align 8
  %call = call i8* @_ZNK10tensorflow12TensorBuffer4baseIvEEPT_v(%"class.tensorflow::TensorBuffer"* %1)
  br label %cond.end

cond.end:                                         ; preds = %cond.false, %cond.true
  %cond = phi i8* [ null, %cond.true ], [ %call, %cond.false ]
  ret i8* %cond
}

; Function Attrs: noinline optnone uwtable
define linkonce_odr dso_local i32 @_ZNK10tensorflow6Tensor5dtypeEv(%"class.tensorflow::Tensor"* %this) #6 comdat align 2 {
entry:
  %this.addr = alloca %"class.tensorflow::Tensor"*, align 8
  store %"class.tensorflow::Tensor"* %this, %"class.tensorflow::Tensor"** %this.addr, align 8
  %this1 = load %"class.tensorflow::Tensor"*, %"class.tensorflow::Tensor"** %this.addr, align 8
  %shape_ = getelementptr inbounds %"class.tensorflow::Tensor", %"class.tensorflow::Tensor"* %this1, i32 0, i32 0
  %0 = bitcast %"class.tensorflow::TensorShape"* %shape_ to %"class.tensorflow::TensorShapeRep"*
  %call = call i32 @_ZNK10tensorflow14TensorShapeRep9data_typeEv(%"class.tensorflow::TensorShapeRep"* %0)
  ret i32 %call
}

; Function Attrs: noinline optnone uwtable
define linkonce_odr dso_local i64 @_ZNK10tensorflow6Tensor11NumElementsEv(%"class.tensorflow::Tensor"* %this) #6 comdat align 2 {
entry:
  %this.addr = alloca %"class.tensorflow::Tensor"*, align 8
  store %"class.tensorflow::Tensor"* %this, %"class.tensorflow::Tensor"** %this.addr, align 8
  %this1 = load %"class.tensorflow::Tensor"*, %"class.tensorflow::Tensor"** %this.addr, align 8
  %call = call nonnull align 8 dereferenceable(24) %"class.tensorflow::TensorShape"* @_ZNK10tensorflow6Tensor5shapeEv(%"class.tensorflow::Tensor"* %this1)
  %0 = bitcast %"class.tensorflow::TensorShape"* %call to %"class.tensorflow::TensorShapeRep"*
  %call2 = call i64 @_ZNK10tensorflow14TensorShapeRep12num_elementsEv(%"class.tensorflow::TensorShapeRep"* %0)
  ret i64 %call2
}

; Function Attrs: noinline nounwind optnone uwtable
define linkonce_odr dso_local nonnull align 8 dereferenceable(24) %"class.tensorflow::TensorShape"* @_ZNK10tensorflow6Tensor5shapeEv(%"class.tensorflow::Tensor"* %this) #0 comdat align 2 {
entry:
  %this.addr = alloca %"class.tensorflow::Tensor"*, align 8
  store %"class.tensorflow::Tensor"* %this, %"class.tensorflow::Tensor"** %this.addr, align 8
  %this1 = load %"class.tensorflow::Tensor"*, %"class.tensorflow::Tensor"** %this.addr, align 8
  %shape_ = getelementptr inbounds %"class.tensorflow::Tensor", %"class.tensorflow::Tensor"* %this1, i32 0, i32 0
  ret %"class.tensorflow::TensorShape"* %shape_
}

; Function Attrs: noinline nounwind optnone uwtable
define linkonce_odr dso_local i64 @_ZNK10tensorflow14TensorShapeRep12num_elementsEv(%"class.tensorflow::TensorShapeRep"* %this) #0 comdat align 2 {
entry:
  %this.addr = alloca %"class.tensorflow::TensorShapeRep"*, align 8
  store %"class.tensorflow::TensorShapeRep"* %this, %"class.tensorflow::TensorShapeRep"** %this.addr, align 8
  %this1 = load %"class.tensorflow::TensorShapeRep"*, %"class.tensorflow::TensorShapeRep"** %this.addr, align 8
  %num_elements_ = getelementptr inbounds %"class.tensorflow::TensorShapeRep", %"class.tensorflow::TensorShapeRep"* %this1, i32 0, i32 1
  %0 = load i64, i64* %num_elements_, align 8
  ret i64 %0
}

; Function Attrs: noinline optnone uwtable
define linkonce_odr dso_local i32 @_ZNK10tensorflow14TensorShapeRep9data_typeEv(%"class.tensorflow::TensorShapeRep"* %this) #6 comdat align 2 {
entry:
  %this.addr = alloca %"class.tensorflow::TensorShapeRep"*, align 8
  store %"class.tensorflow::TensorShapeRep"* %this, %"class.tensorflow::TensorShapeRep"** %this.addr, align 8
  %this1 = load %"class.tensorflow::TensorShapeRep"*, %"class.tensorflow::TensorShapeRep"** %this.addr, align 8
  %call = call i8* @_ZNK10tensorflow14TensorShapeRep3bufEv(%"class.tensorflow::TensorShapeRep"* %this1)
  %arrayidx = getelementptr inbounds i8, i8* %call, i64 13
  %0 = load i8, i8* %arrayidx, align 1
  %conv = zext i8 %0 to i32
  ret i32 %conv
}

; Function Attrs: noinline nounwind optnone uwtable
define linkonce_odr dso_local i8* @_ZNK10tensorflow14TensorShapeRep3bufEv(%"class.tensorflow::TensorShapeRep"* %this) #0 comdat align 2 {
entry:
  %this.addr = alloca %"class.tensorflow::TensorShapeRep"*, align 8
  store %"class.tensorflow::TensorShapeRep"* %this, %"class.tensorflow::TensorShapeRep"** %this.addr, align 8
  %this1 = load %"class.tensorflow::TensorShapeRep"*, %"class.tensorflow::TensorShapeRep"** %this.addr, align 8
  %u_ = getelementptr inbounds %"class.tensorflow::TensorShapeRep", %"class.tensorflow::TensorShapeRep"* %this1, i32 0, i32 0
  %buf = bitcast %union.anon.0* %u_ to [16 x i8]*
  %arrayidx = getelementptr inbounds [16 x i8], [16 x i8]* %buf, i64 0, i64 0
  ret i8* %arrayidx
}

; Function Attrs: noinline nounwind optnone uwtable
define linkonce_odr dso_local i8* @_ZNK10tensorflow12TensorBuffer4baseIvEEPT_v(%"class.tensorflow::TensorBuffer"* %this) #0 comdat align 2 {
entry:
  %this.addr = alloca %"class.tensorflow::TensorBuffer"*, align 8
  store %"class.tensorflow::TensorBuffer"* %this, %"class.tensorflow::TensorBuffer"** %this.addr, align 8
  %this1 = load %"class.tensorflow::TensorBuffer"*, %"class.tensorflow::TensorBuffer"** %this.addr, align 8
  %call = call i8* @_ZNK10tensorflow12TensorBuffer4dataEv(%"class.tensorflow::TensorBuffer"* %this1)
  ret i8* %call
}

; Function Attrs: noinline nounwind optnone uwtable
define linkonce_odr dso_local i8* @_ZNK10tensorflow12TensorBuffer4dataEv(%"class.tensorflow::TensorBuffer"* %this) #0 comdat align 2 {
entry:
  %this.addr = alloca %"class.tensorflow::TensorBuffer"*, align 8
  store %"class.tensorflow::TensorBuffer"* %this, %"class.tensorflow::TensorBuffer"** %this.addr, align 8
  %this1 = load %"class.tensorflow::TensorBuffer"*, %"class.tensorflow::TensorBuffer"** %this.addr, align 8
  %data_ = getelementptr inbounds %"class.tensorflow::TensorBuffer", %"class.tensorflow::TensorBuffer"* %this1, i32 0, i32 1
  %0 = load i8*, i8** %data_, align 8
  ret i8* %0
}

; Function Attrs: noinline optnone uwtable
define linkonce_odr dso_local i64 @_ZNK10tensorflow6Tensor8dim_sizeEi(%"class.tensorflow::Tensor"* %this, i32 %d) #6 comdat align 2 {
entry:
  %this.addr = alloca %"class.tensorflow::Tensor"*, align 8
  %d.addr = alloca i32, align 4
  store %"class.tensorflow::Tensor"* %this, %"class.tensorflow::Tensor"** %this.addr, align 8
  store i32 %d, i32* %d.addr, align 4
  %this1 = load %"class.tensorflow::Tensor"*, %"class.tensorflow::Tensor"** %this.addr, align 8
  %call = call nonnull align 8 dereferenceable(24) %"class.tensorflow::TensorShape"* @_ZNK10tensorflow6Tensor5shapeEv(%"class.tensorflow::Tensor"* %this1)
  %0 = bitcast %"class.tensorflow::TensorShape"* %call to %"class.tensorflow::TensorShapeBase"*
  %1 = load i32, i32* %d.addr, align 4
  %call2 = call i64 @_ZNK10tensorflow15TensorShapeBaseINS_11TensorShapeEE8dim_sizeEi(%"class.tensorflow::TensorShapeBase"* %0, i32 %1)
  ret i64 %call2
}

declare dso_local i64 @_ZNK10tensorflow15TensorShapeBaseINS_11TensorShapeEE8dim_sizeEi(%"class.tensorflow::TensorShapeBase"*, i32) #4

; Function Attrs: noinline optnone uwtable
define linkonce_odr dso_local i32 @_ZNK10tensorflow6Tensor4dimsEv(%"class.tensorflow::Tensor"* %this) #6 comdat align 2 {
entry:
  %this.addr = alloca %"class.tensorflow::Tensor"*, align 8
  store %"class.tensorflow::Tensor"* %this, %"class.tensorflow::Tensor"** %this.addr, align 8
  %this1 = load %"class.tensorflow::Tensor"*, %"class.tensorflow::Tensor"** %this.addr, align 8
  %call = call nonnull align 8 dereferenceable(24) %"class.tensorflow::TensorShape"* @_ZNK10tensorflow6Tensor5shapeEv(%"class.tensorflow::Tensor"* %this1)
  %0 = bitcast %"class.tensorflow::TensorShape"* %call to %"class.tensorflow::TensorShapeBase"*
  %call2 = call i32 @_ZNK10tensorflow15TensorShapeBaseINS_11TensorShapeEE4dimsEv(%"class.tensorflow::TensorShapeBase"* %0)
  ret i32 %call2
}

declare dso_local i32 @_ZNK10tensorflow15TensorShapeBaseINS_11TensorShapeEE4dimsEv(%"class.tensorflow::TensorShapeBase"*) #4

; Function Attrs: noinline optnone uwtable
define internal void @_ZL18TF_TString_DeallocP10TF_TString(%struct.TF_TString* %str) #6 {
entry:
  %str.addr = alloca %struct.TF_TString*, align 8
  store %struct.TF_TString* %str, %struct.TF_TString** %str.addr, align 8
  %0 = load %struct.TF_TString*, %struct.TF_TString** %str.addr, align 8
  %call = call i32 @_ZL18TF_TString_GetTypePK10TF_TString(%struct.TF_TString* %0)
  %cmp = icmp eq i32 %call, 1
  br i1 %cmp, label %land.lhs.true, label %if.end

land.lhs.true:                                    ; preds = %entry
  %1 = load %struct.TF_TString*, %struct.TF_TString** %str.addr, align 8
  %u = getelementptr inbounds %struct.TF_TString, %struct.TF_TString* %1, i32 0, i32 0
  %large = bitcast %union.anon.5* %u to %struct.TF_TString_Large*
  %ptr = getelementptr inbounds %struct.TF_TString_Large, %struct.TF_TString_Large* %large, i32 0, i32 2
  %2 = load i8*, i8** %ptr, align 8
  %cmp1 = icmp ne i8* %2, null
  br i1 %cmp1, label %if.then, label %if.end

if.then:                                          ; preds = %land.lhs.true
  %3 = load %struct.TF_TString*, %struct.TF_TString** %str.addr, align 8
  %u2 = getelementptr inbounds %struct.TF_TString, %struct.TF_TString* %3, i32 0, i32 0
  %large3 = bitcast %union.anon.5* %u2 to %struct.TF_TString_Large*
  %ptr4 = getelementptr inbounds %struct.TF_TString_Large, %struct.TF_TString_Large* %large3, i32 0, i32 2
  %4 = load i8*, i8** %ptr4, align 8
  call void @free(i8* %4) #11
  %5 = load %struct.TF_TString*, %struct.TF_TString** %str.addr, align 8
  call void @_ZL15TF_TString_InitP10TF_TString(%struct.TF_TString* %5)
  br label %if.end

if.end:                                           ; preds = %if.then, %land.lhs.true, %entry
  ret void
}

; Function Attrs: noinline nounwind optnone uwtable
define internal i32 @_ZL18TF_TString_GetTypePK10TF_TString(%struct.TF_TString* %str) #0 {
entry:
  %str.addr = alloca %struct.TF_TString*, align 8
  store %struct.TF_TString* %str, %struct.TF_TString** %str.addr, align 8
  %0 = load %struct.TF_TString*, %struct.TF_TString** %str.addr, align 8
  %u = getelementptr inbounds %struct.TF_TString, %struct.TF_TString* %0, i32 0, i32 0
  %raw = bitcast %union.anon.5* %u to %struct.TF_TString_Raw*
  %raw1 = getelementptr inbounds %struct.TF_TString_Raw, %struct.TF_TString_Raw* %raw, i32 0, i32 0
  %arrayidx = getelementptr inbounds [24 x i8], [24 x i8]* %raw1, i64 0, i64 0
  %1 = load i8, i8* %arrayidx, align 8
  %conv = zext i8 %1 to i32
  %and = and i32 %conv, 3
  ret i32 %and
}

; Function Attrs: nounwind
declare dso_local void @free(i8*) #3

; Function Attrs: noinline nounwind optnone uwtable
define internal void @_ZL15TF_TString_InitP10TF_TString(%struct.TF_TString* %str) #0 {
entry:
  %str.addr = alloca %struct.TF_TString*, align 8
  store %struct.TF_TString* %str, %struct.TF_TString** %str.addr, align 8
  %0 = load %struct.TF_TString*, %struct.TF_TString** %str.addr, align 8
  %u = getelementptr inbounds %struct.TF_TString, %struct.TF_TString* %0, i32 0, i32 0
  %raw = bitcast %union.anon.5* %u to %struct.TF_TString_Raw*
  %raw1 = getelementptr inbounds %struct.TF_TString_Raw, %struct.TF_TString_Raw* %raw, i32 0, i32 0
  %arraydecay = getelementptr inbounds [24 x i8], [24 x i8]* %raw1, i64 0, i64 0
  %1 = call i8* @memset(i8* %arraydecay, i32 0, i64 24)
  ret void
}

; Function Attrs: argmemonly nounwind willreturn writeonly
declare void @llvm.memset.p0i8.i64(i8* nocapture writeonly, i8, i64, i1 immarg) #9

; Function Attrs: noinline uwtable
define internal void @_GLOBAL__sub_I_tf_tensor.cc() #10 section ".text.startup" {
entry:
  call void @__cxx_global_var_init()
  ret void
}

; Function Attrs: noinline uwtable
define internal void @__cxx_global_var_init() #10 section ".text.startup" {
entry:
  call void @_ZNSt8ios_base4InitC1Ev(%"class.std::ios_base::Init"* @_ZStL8__ioinit)
  %0 = call i32 @__cxa_atexit(void (i8*)* bitcast (void (%"class.std::ios_base::Init"*)* @_ZNSt8ios_base4InitD1Ev to void (i8*)*), i8* getelementptr inbounds (%"class.std::ios_base::Init", %"class.std::ios_base::Init"* @_ZStL8__ioinit, i32 0, i32 0), i8* bitcast (i8** @__dso_handle to i8*)) #11
  ret void
}

declare dso_local void @_ZNSt8ios_base4InitC1Ev(%"class.std::ios_base::Init"*) unnamed_addr #4

; Function Attrs: nounwind
declare dso_local void @_ZNSt8ios_base4InitD1Ev(%"class.std::ios_base::Init"*) unnamed_addr #3

; Function Attrs: nounwind
declare dso_local i32 @__cxa_atexit(void (i8*)*, i8*, i8*) #11

; Function Attrs: noinline optnone uwtable
define dso_local i8* @_ZN10tensorflow15allocate_tensorEPKcmPN3tsl9AllocatorE(i8* %operation, i64 %len, %"class.tensorflow::AbstractTensorInterface"* %allocator) #6 personality i8* bitcast (i32 (...)* @__gxx_personality_v0 to i8*) {
entry:
  %operation.addr = alloca i8*, align 8
  %len.addr = alloca i64, align 8
  %allocator.addr = alloca %"class.tensorflow::AbstractTensorInterface"*, align 8
  %data = alloca i8*, align 8
  %ref.tmp = alloca %"class.std::__cxx11::basic_string", align 8
  %ref.tmp2 = alloca %"class.std::ios_base::Init", align 1
  %exn.slot = alloca i8*, align 8
  %ehselector.slot = alloca i32, align 4
  store i8* %operation, i8** %operation.addr, align 8
  store i64 %len, i64* %len.addr, align 8
  store %"class.tensorflow::AbstractTensorInterface"* %allocator, %"class.tensorflow::AbstractTensorInterface"** %allocator.addr, align 8
  %0 = load %"class.tensorflow::AbstractTensorInterface"*, %"class.tensorflow::AbstractTensorInterface"** %allocator.addr, align 8
  %1 = load i64, i64* %len.addr, align 8
  %2 = bitcast %"class.tensorflow::AbstractTensorInterface"* %0 to i8* (%"class.tensorflow::AbstractTensorInterface"*, i64, i64)***
  %vtable = load i8* (%"class.tensorflow::AbstractTensorInterface"*, i64, i64)**, i8* (%"class.tensorflow::AbstractTensorInterface"*, i64, i64)*** %2, align 8
  %vfn = getelementptr inbounds i8* (%"class.tensorflow::AbstractTensorInterface"*, i64, i64)*, i8* (%"class.tensorflow::AbstractTensorInterface"*, i64, i64)** %vtable, i64 3
  %3 = load i8* (%"class.tensorflow::AbstractTensorInterface"*, i64, i64)*, i8* (%"class.tensorflow::AbstractTensorInterface"*, i64, i64)** %vfn, align 8
  %call = call i8* %3(%"class.tensorflow::AbstractTensorInterface"* %0, i64 16, i64 %1)
  store i8* %call, i8** %data, align 8
  %call1 = call zeroext i1 @_ZN10tensorflow9LogMemory9IsEnabledEv()
  br i1 %call1, label %land.lhs.true, label %if.end

land.lhs.true:                                    ; preds = %entry
  %4 = load i8*, i8** %data, align 8
  %cmp = icmp ne i8* %4, null
  br i1 %cmp, label %if.then, label %if.end

if.then:                                          ; preds = %land.lhs.true
  %5 = load i8*, i8** %operation.addr, align 8
  call void @_ZNSaIcEC1Ev(%"class.std::ios_base::Init"* %ref.tmp2) #11
  invoke void @_ZNSt7__cxx1112basic_stringIcSt11char_traitsIcESaIcEEC2IS3_EEPKcRKS3_(%"class.std::__cxx11::basic_string"* %ref.tmp, i8* %5, %"class.std::ios_base::Init"* nonnull align 1 dereferenceable(1) %ref.tmp2)
          to label %invoke.cont unwind label %lpad

invoke.cont:                                      ; preds = %if.then
  %6 = load i64, i64* %len.addr, align 8
  %7 = load i8*, i8** %data, align 8
  %8 = load %"class.tensorflow::AbstractTensorInterface"*, %"class.tensorflow::AbstractTensorInterface"** %allocator.addr, align 8
  invoke void @_ZN10tensorflow9LogMemory19RecordRawAllocationERKNSt7__cxx1112basic_stringIcSt11char_traitsIcESaIcEEElmPvPN3tsl9AllocatorE(%"class.std::__cxx11::basic_string"* nonnull align 8 dereferenceable(32) %ref.tmp, i64 -3, i64 %6, i8* %7, %"class.tensorflow::AbstractTensorInterface"* %8)
          to label %invoke.cont4 unwind label %lpad3

invoke.cont4:                                     ; preds = %invoke.cont
  call void @_ZNSt7__cxx1112basic_stringIcSt11char_traitsIcESaIcEED1Ev(%"class.std::__cxx11::basic_string"* %ref.tmp) #11
  call void @_ZNSaIcED1Ev(%"class.std::ios_base::Init"* %ref.tmp2) #11
  br label %if.end

lpad:                                             ; preds = %if.then
  %9 = landingpad { i8*, i32 }
          cleanup
  %10 = extractvalue { i8*, i32 } %9, 0
  store i8* %10, i8** %exn.slot, align 8
  %11 = extractvalue { i8*, i32 } %9, 1
  store i32 %11, i32* %ehselector.slot, align 4
  br label %ehcleanup

lpad3:                                            ; preds = %invoke.cont
  %12 = landingpad { i8*, i32 }
          cleanup
  %13 = extractvalue { i8*, i32 } %12, 0
  store i8* %13, i8** %exn.slot, align 8
  %14 = extractvalue { i8*, i32 } %12, 1
  store i32 %14, i32* %ehselector.slot, align 4
  call void @_ZNSt7__cxx1112basic_stringIcSt11char_traitsIcESaIcEED1Ev(%"class.std::__cxx11::basic_string"* %ref.tmp) #11
  br label %ehcleanup

ehcleanup:                                        ; preds = %lpad3, %lpad
  call void @_ZNSaIcED1Ev(%"class.std::ios_base::Init"* %ref.tmp2) #11
  br label %eh.resume

if.end:                                           ; preds = %invoke.cont4, %land.lhs.true, %entry
  %15 = load i8*, i8** %data, align 8
  ret i8* %15

eh.resume:                                        ; preds = %ehcleanup
  %exn = load i8*, i8** %exn.slot, align 8
  %sel = load i32, i32* %ehselector.slot, align 4
  %lpad.val = insertvalue { i8*, i32 } undef, i8* %exn, 0
  %lpad.val5 = insertvalue { i8*, i32 } %lpad.val, i32 %sel, 1
  resume { i8*, i32 } %lpad.val5
}

declare dso_local zeroext i1 @_ZN10tensorflow9LogMemory9IsEnabledEv() #4

; Function Attrs: nounwind
declare dso_local void @_ZNSaIcEC1Ev(%"class.std::ios_base::Init"*) unnamed_addr #3

; Function Attrs: noinline optnone uwtable
define linkonce_odr dso_local void @_ZNSt7__cxx1112basic_stringIcSt11char_traitsIcESaIcEEC2IS3_EEPKcRKS3_(%"class.std::__cxx11::basic_string"* %this, i8* %__s, %"class.std::ios_base::Init"* nonnull align 1 dereferenceable(1) %__a) unnamed_addr #6 comdat align 2 personality i8* bitcast (i32 (...)* @__gxx_personality_v0 to i8*) {
entry:
  %this.addr = alloca %"class.std::__cxx11::basic_string"*, align 8
  %__s.addr = alloca i8*, align 8
  %__a.addr = alloca %"class.std::ios_base::Init"*, align 8
  %__end = alloca i8*, align 8
  %exn.slot = alloca i8*, align 8
  %ehselector.slot = alloca i32, align 4
  %agg.tmp = alloca %"class.std::ios_base::Init", align 1
  %ref.tmp = alloca %"class.std::ios_base::Init", align 1
  store %"class.std::__cxx11::basic_string"* %this, %"class.std::__cxx11::basic_string"** %this.addr, align 8
  store i8* %__s, i8** %__s.addr, align 8
  store %"class.std::ios_base::Init"* %__a, %"class.std::ios_base::Init"** %__a.addr, align 8
  %this1 = load %"class.std::__cxx11::basic_string"*, %"class.std::__cxx11::basic_string"** %this.addr, align 8
  %_M_dataplus = getelementptr inbounds %"class.std::__cxx11::basic_string", %"class.std::__cxx11::basic_string"* %this1, i32 0, i32 0
  %call = call i8* @_ZNSt7__cxx1112basic_stringIcSt11char_traitsIcESaIcEE13_M_local_dataEv(%"class.std::__cxx11::basic_string"* %this1)
  %0 = load %"class.std::ios_base::Init"*, %"class.std::ios_base::Init"** %__a.addr, align 8
  call void @_ZNSt7__cxx1112basic_stringIcSt11char_traitsIcESaIcEE12_Alloc_hiderC1EPcRKS3_(%"struct.std::__cxx11::basic_string<char, std::char_traits<char>, std::allocator<char>>::_Alloc_hider"* %_M_dataplus, i8* %call, %"class.std::ios_base::Init"* nonnull align 1 dereferenceable(1) %0)
  %1 = load i8*, i8** %__s.addr, align 8
  %tobool = icmp ne i8* %1, null
  br i1 %tobool, label %cond.true, label %cond.false

cond.true:                                        ; preds = %entry
  %2 = load i8*, i8** %__s.addr, align 8
  %3 = load i8*, i8** %__s.addr, align 8
  %call2 = invoke i64 @_ZNSt11char_traitsIcE6lengthEPKc(i8* %3)
          to label %invoke.cont unwind label %lpad

invoke.cont:                                      ; preds = %cond.true
  %add.ptr = getelementptr inbounds i8, i8* %2, i64 %call2
  br label %cond.end

cond.false:                                       ; preds = %entry
  br label %cond.end

cond.end:                                         ; preds = %cond.false, %invoke.cont
  %cond = phi i8* [ %add.ptr, %invoke.cont ], [ inttoptr (i64 1 to i8*), %cond.false ]
  store i8* %cond, i8** %__end, align 8
  %4 = load i8*, i8** %__s.addr, align 8
  %5 = load i8*, i8** %__end, align 8
  %6 = bitcast %"class.std::ios_base::Init"* %ref.tmp to %"class.std::ios_base::Init"*
  invoke void @_ZNSt7__cxx1112basic_stringIcSt11char_traitsIcESaIcEE12_M_constructIPKcEEvT_S8_St20forward_iterator_tag(%"class.std::__cxx11::basic_string"* %this1, i8* %4, i8* %5)
          to label %invoke.cont3 unwind label %lpad

invoke.cont3:                                     ; preds = %cond.end
  ret void

lpad:                                             ; preds = %cond.end, %cond.true
  %7 = landingpad { i8*, i32 }
          cleanup
  %8 = extractvalue { i8*, i32 } %7, 0
  store i8* %8, i8** %exn.slot, align 8
  %9 = extractvalue { i8*, i32 } %7, 1
  store i32 %9, i32* %ehselector.slot, align 4
  call void @_ZNSt7__cxx1112basic_stringIcSt11char_traitsIcESaIcEE12_Alloc_hiderD2Ev(%"struct.std::__cxx11::basic_string<char, std::char_traits<char>, std::allocator<char>>::_Alloc_hider"* %_M_dataplus) #11
  br label %eh.resume

eh.resume:                                        ; preds = %lpad
  %exn = load i8*, i8** %exn.slot, align 8
  %sel = load i32, i32* %ehselector.slot, align 4
  %lpad.val = insertvalue { i8*, i32 } undef, i8* %exn, 0
  %lpad.val4 = insertvalue { i8*, i32 } %lpad.val, i32 %sel, 1
  resume { i8*, i32 } %lpad.val4
}

declare dso_local void @_ZN10tensorflow9LogMemory19RecordRawAllocationERKNSt7__cxx1112basic_stringIcSt11char_traitsIcESaIcEEElmPvPN3tsl9AllocatorE(%"class.std::__cxx11::basic_string"* nonnull align 8 dereferenceable(32), i64, i64, i8*, %"class.tensorflow::AbstractTensorInterface"*) #4

; Function Attrs: nounwind
declare dso_local void @_ZNSt7__cxx1112basic_stringIcSt11char_traitsIcESaIcEED1Ev(%"class.std::__cxx11::basic_string"*) unnamed_addr #3

; Function Attrs: nounwind
declare dso_local void @_ZNSaIcED1Ev(%"class.std::ios_base::Init"*) unnamed_addr #3

declare dso_local i8* @_ZNSt7__cxx1112basic_stringIcSt11char_traitsIcESaIcEE13_M_local_dataEv(%"class.std::__cxx11::basic_string"*) #4

declare dso_local void @_ZNSt7__cxx1112basic_stringIcSt11char_traitsIcESaIcEE12_Alloc_hiderC1EPcRKS3_(%"struct.std::__cxx11::basic_string<char, std::char_traits<char>, std::allocator<char>>::_Alloc_hider"*, i8*, %"class.std::ios_base::Init"* nonnull align 1 dereferenceable(1)) unnamed_addr #4

; Function Attrs: noinline optnone uwtable
define linkonce_odr dso_local i64 @_ZNSt11char_traitsIcE6lengthEPKc(i8* %__s) #6 comdat align 2 {
entry:
  %__s.addr.i = alloca i8*, align 8
  %retval = alloca i64, align 8
  %__s.addr = alloca i8*, align 8
  store i8* %__s, i8** %__s.addr, align 8
  %0 = load i8*, i8** %__s.addr, align 8
  store i8* %0, i8** %__s.addr.i, align 8
  br i1 false, label %if.then, label %if.end

if.then:                                          ; preds = %entry
  %1 = load i8*, i8** %__s.addr, align 8
  %call1 = call i64 @_ZN9__gnu_cxx11char_traitsIcE6lengthEPKc(i8* %1)
  store i64 %call1, i64* %retval, align 8
  br label %return

if.end:                                           ; preds = %entry
  %2 = load i8*, i8** %__s.addr, align 8
  %call2 = call i64 @strlen(i8* %2) #11
  store i64 %call2, i64* %retval, align 8
  br label %return

return:                                           ; preds = %if.end, %if.then
  %3 = load i64, i64* %retval, align 8
  ret i64 %3
}

; Function Attrs: noinline optnone uwtable
define linkonce_odr dso_local void @_ZNSt7__cxx1112basic_stringIcSt11char_traitsIcESaIcEE12_M_constructIPKcEEvT_S8_St20forward_iterator_tag(%"class.std::__cxx11::basic_string"* %this, i8* %__beg, i8* %__end) #6 comdat align 2 personality i8* bitcast (i32 (...)* @__gxx_personality_v0 to i8*) {
entry:
  %0 = alloca %"class.std::ios_base::Init", align 1
  %this.addr = alloca %"class.std::__cxx11::basic_string"*, align 8
  %__beg.addr = alloca i8*, align 8
  %__end.addr = alloca i8*, align 8
  %__dnew = alloca i64, align 8
  %exn.slot = alloca i8*, align 8
  %ehselector.slot = alloca i32, align 4
  store %"class.std::__cxx11::basic_string"* %this, %"class.std::__cxx11::basic_string"** %this.addr, align 8
  store i8* %__beg, i8** %__beg.addr, align 8
  store i8* %__end, i8** %__end.addr, align 8
  %this1 = load %"class.std::__cxx11::basic_string"*, %"class.std::__cxx11::basic_string"** %this.addr, align 8
  %1 = load i8*, i8** %__beg.addr, align 8
  %call = call zeroext i1 @_ZN9__gnu_cxx17__is_null_pointerIKcEEbPT_(i8* %1)
  br i1 %call, label %land.lhs.true, label %if.end

land.lhs.true:                                    ; preds = %entry
  %2 = load i8*, i8** %__beg.addr, align 8
  %3 = load i8*, i8** %__end.addr, align 8
  %cmp = icmp ne i8* %2, %3
  br i1 %cmp, label %if.then, label %if.end

if.then:                                          ; preds = %land.lhs.true
  call void @_ZSt19__throw_logic_errorPKc(i8* getelementptr inbounds ([42 x i8], [42 x i8]* @.str.9, i64 0, i64 0)) #20
  unreachable

if.end:                                           ; preds = %land.lhs.true, %entry
  %4 = load i8*, i8** %__beg.addr, align 8
  %5 = load i8*, i8** %__end.addr, align 8
  %call2 = call i64 @_ZSt8distanceIPKcENSt15iterator_traitsIT_E15difference_typeES3_S3_(i8* %4, i8* %5)
  store i64 %call2, i64* %__dnew, align 8
  %6 = load i64, i64* %__dnew, align 8
  %cmp3 = icmp ugt i64 %6, 15
  br i1 %cmp3, label %if.then4, label %if.end6

if.then4:                                         ; preds = %if.end
  %call5 = call i8* @_ZNSt7__cxx1112basic_stringIcSt11char_traitsIcESaIcEE9_M_createERmm(%"class.std::__cxx11::basic_string"* %this1, i64* nonnull align 8 dereferenceable(8) %__dnew, i64 0)
  call void @_ZNSt7__cxx1112basic_stringIcSt11char_traitsIcESaIcEE7_M_dataEPc(%"class.std::__cxx11::basic_string"* %this1, i8* %call5)
  %7 = load i64, i64* %__dnew, align 8
  call void @_ZNSt7__cxx1112basic_stringIcSt11char_traitsIcESaIcEE11_M_capacityEm(%"class.std::__cxx11::basic_string"* %this1, i64 %7)
  br label %if.end6

if.end6:                                          ; preds = %if.then4, %if.end
  %call7 = invoke i8* @_ZNKSt7__cxx1112basic_stringIcSt11char_traitsIcESaIcEE7_M_dataEv(%"class.std::__cxx11::basic_string"* %this1)
          to label %invoke.cont unwind label %lpad

invoke.cont:                                      ; preds = %if.end6
  %8 = load i8*, i8** %__beg.addr, align 8
  %9 = load i8*, i8** %__end.addr, align 8
  call void @_ZNSt7__cxx1112basic_stringIcSt11char_traitsIcESaIcEE13_S_copy_charsEPcPKcS7_(i8* %call7, i8* %8, i8* %9) #11
  br label %try.cont

lpad:                                             ; preds = %if.end6
  %10 = landingpad { i8*, i32 }
          catch i8* null
  %11 = extractvalue { i8*, i32 } %10, 0
  store i8* %11, i8** %exn.slot, align 8
  %12 = extractvalue { i8*, i32 } %10, 1
  store i32 %12, i32* %ehselector.slot, align 4
  br label %catch

catch:                                            ; preds = %lpad
  %exn = load i8*, i8** %exn.slot, align 8
  %13 = call i8* @__cxa_begin_catch(i8* %exn) #11
  invoke void @_ZNSt7__cxx1112basic_stringIcSt11char_traitsIcESaIcEE10_M_disposeEv(%"class.std::__cxx11::basic_string"* %this1)
          to label %invoke.cont9 unwind label %lpad8

invoke.cont9:                                     ; preds = %catch
  invoke void @__cxa_rethrow() #20
          to label %unreachable unwind label %lpad8

lpad8:                                            ; preds = %invoke.cont9, %catch
  %14 = landingpad { i8*, i32 }
          cleanup
  %15 = extractvalue { i8*, i32 } %14, 0
  store i8* %15, i8** %exn.slot, align 8
  %16 = extractvalue { i8*, i32 } %14, 1
  store i32 %16, i32* %ehselector.slot, align 4
  invoke void @__cxa_end_catch()
          to label %invoke.cont10 unwind label %terminate.lpad

invoke.cont10:                                    ; preds = %lpad8
  br label %eh.resume

try.cont:                                         ; preds = %invoke.cont
  %17 = load i64, i64* %__dnew, align 8
  call void @_ZNSt7__cxx1112basic_stringIcSt11char_traitsIcESaIcEE13_M_set_lengthEm(%"class.std::__cxx11::basic_string"* %this1, i64 %17)
  ret void

eh.resume:                                        ; preds = %invoke.cont10
  %exn11 = load i8*, i8** %exn.slot, align 8
  %sel = load i32, i32* %ehselector.slot, align 4
  %lpad.val = insertvalue { i8*, i32 } undef, i8* %exn11, 0
  %lpad.val12 = insertvalue { i8*, i32 } %lpad.val, i32 %sel, 1
  resume { i8*, i32 } %lpad.val12

terminate.lpad:                                   ; preds = %lpad8
  %18 = landingpad { i8*, i32 }
          catch i8* null
  %19 = extractvalue { i8*, i32 } %18, 0
  call void @__clang_call_terminate(i8* %19) #16
  unreachable

unreachable:                                      ; preds = %invoke.cont9
  unreachable
}

; Function Attrs: noinline nounwind optnone uwtable
define linkonce_odr dso_local void @_ZNSt7__cxx1112basic_stringIcSt11char_traitsIcESaIcEE12_Alloc_hiderD2Ev(%"struct.std::__cxx11::basic_string<char, std::char_traits<char>, std::allocator<char>>::_Alloc_hider"* %this) unnamed_addr #0 comdat align 2 {
entry:
  %this.addr = alloca %"struct.std::__cxx11::basic_string<char, std::char_traits<char>, std::allocator<char>>::_Alloc_hider"*, align 8
  store %"struct.std::__cxx11::basic_string<char, std::char_traits<char>, std::allocator<char>>::_Alloc_hider"* %this, %"struct.std::__cxx11::basic_string<char, std::char_traits<char>, std::allocator<char>>::_Alloc_hider"** %this.addr, align 8
  %this1 = load %"struct.std::__cxx11::basic_string<char, std::char_traits<char>, std::allocator<char>>::_Alloc_hider"*, %"struct.std::__cxx11::basic_string<char, std::char_traits<char>, std::allocator<char>>::_Alloc_hider"** %this.addr, align 8
  %0 = bitcast %"struct.std::__cxx11::basic_string<char, std::char_traits<char>, std::allocator<char>>::_Alloc_hider"* %this1 to %"class.std::ios_base::Init"*
  call void @_ZNSaIcED2Ev(%"class.std::ios_base::Init"* %0) #11
  ret void
}

; Function Attrs: nounwind
declare dso_local void @_ZNSaIcED2Ev(%"class.std::ios_base::Init"*) unnamed_addr #3

; Function Attrs: noinline nounwind optnone uwtable
define linkonce_odr dso_local zeroext i1 @_ZN9__gnu_cxx17__is_null_pointerIKcEEbPT_(i8* %__ptr) #0 comdat {
entry:
  %__ptr.addr = alloca i8*, align 8
  store i8* %__ptr, i8** %__ptr.addr, align 8
  %0 = load i8*, i8** %__ptr.addr, align 8
  %cmp = icmp eq i8* %0, null
  ret i1 %cmp
}

; Function Attrs: noreturn
declare dso_local void @_ZSt19__throw_logic_errorPKc(i8*) #12

; Function Attrs: noinline optnone uwtable
define linkonce_odr dso_local i64 @_ZSt8distanceIPKcENSt15iterator_traitsIT_E15difference_typeES3_S3_(i8* %__first, i8* %__last) #6 comdat {
entry:
  %__first.addr = alloca i8*, align 8
  %__last.addr = alloca i8*, align 8
  %agg.tmp = alloca %"class.std::ios_base::Init", align 1
  %undef.agg.tmp = alloca %"class.std::ios_base::Init", align 1
  store i8* %__first, i8** %__first.addr, align 8
  store i8* %__last, i8** %__last.addr, align 8
  %0 = load i8*, i8** %__first.addr, align 8
  %1 = load i8*, i8** %__last.addr, align 8
  call void @_ZSt19__iterator_categoryIPKcENSt15iterator_traitsIT_E17iterator_categoryERKS3_(i8** nonnull align 8 dereferenceable(8) %__first.addr)
  %call = call i64 @_ZSt10__distanceIPKcENSt15iterator_traitsIT_E15difference_typeES3_S3_St26random_access_iterator_tag(i8* %0, i8* %1)
  ret i64 %call
}

declare dso_local i8* @_ZNSt7__cxx1112basic_stringIcSt11char_traitsIcESaIcEE9_M_createERmm(%"class.std::__cxx11::basic_string"*, i64* nonnull align 8 dereferenceable(8), i64) #4

declare dso_local void @_ZNSt7__cxx1112basic_stringIcSt11char_traitsIcESaIcEE7_M_dataEPc(%"class.std::__cxx11::basic_string"*, i8*) #4

declare dso_local void @_ZNSt7__cxx1112basic_stringIcSt11char_traitsIcESaIcEE11_M_capacityEm(%"class.std::__cxx11::basic_string"*, i64) #4

declare dso_local i8* @_ZNKSt7__cxx1112basic_stringIcSt11char_traitsIcESaIcEE7_M_dataEv(%"class.std::__cxx11::basic_string"*) #4

; Function Attrs: nounwind
declare dso_local void @_ZNSt7__cxx1112basic_stringIcSt11char_traitsIcESaIcEE13_S_copy_charsEPcPKcS7_(i8*, i8*, i8*) #3

declare dso_local void @_ZNSt7__cxx1112basic_stringIcSt11char_traitsIcESaIcEE10_M_disposeEv(%"class.std::__cxx11::basic_string"*) #4

declare dso_local void @__cxa_rethrow()

declare dso_local void @__cxa_end_catch()

declare dso_local void @_ZNSt7__cxx1112basic_stringIcSt11char_traitsIcESaIcEE13_M_set_lengthEm(%"class.std::__cxx11::basic_string"*, i64) #4

; Function Attrs: noinline nounwind optnone uwtable
define linkonce_odr dso_local void @_ZSt19__iterator_categoryIPKcENSt15iterator_traitsIT_E17iterator_categoryERKS3_(i8** nonnull align 8 dereferenceable(8) %0) #0 comdat {
entry:
  %.addr = alloca i8**, align 8
  store i8** %0, i8*** %.addr, align 8
  ret void
}

; Function Attrs: noinline nounwind optnone uwtable
define linkonce_odr dso_local i64 @_ZSt10__distanceIPKcENSt15iterator_traitsIT_E15difference_typeES3_S3_St26random_access_iterator_tag(i8* %__first, i8* %__last) #0 comdat {
entry:
  %0 = alloca %"class.std::ios_base::Init", align 1
  %__first.addr = alloca i8*, align 8
  %__last.addr = alloca i8*, align 8
  store i8* %__first, i8** %__first.addr, align 8
  store i8* %__last, i8** %__last.addr, align 8
  %1 = load i8*, i8** %__last.addr, align 8
  %2 = load i8*, i8** %__first.addr, align 8
  %sub.ptr.lhs.cast = ptrtoint i8* %1 to i64
  %sub.ptr.rhs.cast = ptrtoint i8* %2 to i64
  %sub.ptr.sub = sub i64 %sub.ptr.lhs.cast, %sub.ptr.rhs.cast
  ret i64 %sub.ptr.sub
}

; Function Attrs: noinline optnone uwtable
define linkonce_odr dso_local i64 @_ZN9__gnu_cxx11char_traitsIcE6lengthEPKc(i8* %__p) #6 comdat align 2 {
entry:
  %__p.addr = alloca i8*, align 8
  %__i = alloca i64, align 8
  %ref.tmp = alloca i8, align 1
  store i8* %__p, i8** %__p.addr, align 8
  store i64 0, i64* %__i, align 8
  br label %while.cond

while.cond:                                       ; preds = %while.body, %entry
  %0 = load i8*, i8** %__p.addr, align 8
  %1 = load i64, i64* %__i, align 8
  %arrayidx = getelementptr inbounds i8, i8* %0, i64 %1
  store i8 0, i8* %ref.tmp, align 1
  %call = call zeroext i1 @_ZN9__gnu_cxx11char_traitsIcE2eqERKcS3_(i8* nonnull align 1 dereferenceable(1) %arrayidx, i8* nonnull align 1 dereferenceable(1) %ref.tmp)
  %lnot = xor i1 %call, true
  br i1 %lnot, label %while.body, label %while.end

while.body:                                       ; preds = %while.cond
  %2 = load i64, i64* %__i, align 8
  %inc = add i64 %2, 1
  store i64 %inc, i64* %__i, align 8
  br label %while.cond

while.end:                                        ; preds = %while.cond
  %3 = load i64, i64* %__i, align 8
  ret i64 %3
}

; Function Attrs: nounwind
declare dso_local i64 @strlen(i8*) #3

; Function Attrs: noinline nounwind optnone uwtable
define linkonce_odr dso_local zeroext i1 @_ZN9__gnu_cxx11char_traitsIcE2eqERKcS3_(i8* nonnull align 1 dereferenceable(1) %__c1, i8* nonnull align 1 dereferenceable(1) %__c2) #0 comdat align 2 {
entry:
  %__c1.addr = alloca i8*, align 8
  %__c2.addr = alloca i8*, align 8
  store i8* %__c1, i8** %__c1.addr, align 8
  store i8* %__c2, i8** %__c2.addr, align 8
  %0 = load i8*, i8** %__c1.addr, align 8
  %1 = load i8, i8* %0, align 1
  %conv = sext i8 %1 to i32
  %2 = load i8*, i8** %__c2.addr, align 8
  %3 = load i8, i8* %2, align 1
  %conv1 = sext i8 %3 to i32
  %cmp = icmp eq i32 %conv, %conv1
  ret i1 %cmp
}

; Function Attrs: noinline optnone uwtable
define dso_local i8* @_ZN10tensorflow15allocate_tensorEPKcm(i8* %operation, i64 %len) #6 {
entry:
  %operation.addr = alloca i8*, align 8
  %len.addr = alloca i64, align 8
  store i8* %operation, i8** %operation.addr, align 8
  store i64 %len, i64* %len.addr, align 8
  %0 = load i8*, i8** %operation.addr, align 8
  %1 = load i64, i64* %len.addr, align 8
  %call = call %"class.tensorflow::AbstractTensorInterface"* @_ZN3tsl13cpu_allocatorEi(i32 -1)
  %call1 = call i8* @_ZN10tensorflow15allocate_tensorEPKcmPN3tsl9AllocatorE(i8* %0, i64 %1, %"class.tensorflow::AbstractTensorInterface"* %call)
  ret i8* %call1
}

declare dso_local %"class.tensorflow::AbstractTensorInterface"* @_ZN3tsl13cpu_allocatorEi(i32) #4

; Function Attrs: noinline optnone uwtable
define dso_local void @_ZN10tensorflow17deallocate_bufferEPvmS0_(i8* %data, i64 %len, i8* %arg) #6 personality i8* bitcast (i32 (...)* @__gxx_personality_v0 to i8*) {
entry:
  %data.addr = alloca i8*, align 8
  %len.addr = alloca i64, align 8
  %arg.addr = alloca i8*, align 8
  %allocator = alloca %"class.tensorflow::AbstractTensorInterface"*, align 8
  %ref.tmp = alloca %"class.std::__cxx11::basic_string", align 8
  %ref.tmp4 = alloca %"class.std::ios_base::Init", align 1
  %exn.slot = alloca i8*, align 8
  %ehselector.slot = alloca i32, align 4
  store i8* %data, i8** %data.addr, align 8
  store i64 %len, i64* %len.addr, align 8
  store i8* %arg, i8** %arg.addr, align 8
  store %"class.tensorflow::AbstractTensorInterface"* null, %"class.tensorflow::AbstractTensorInterface"** %allocator, align 8
  %0 = load i8*, i8** %arg.addr, align 8
  %cmp = icmp eq i8* %0, null
  br i1 %cmp, label %if.then, label %if.else

if.then:                                          ; preds = %entry
  %call = call %"class.tensorflow::AbstractTensorInterface"* @_ZN3tsl13cpu_allocatorEi(i32 -1)
  store %"class.tensorflow::AbstractTensorInterface"* %call, %"class.tensorflow::AbstractTensorInterface"** %allocator, align 8
  br label %if.end

if.else:                                          ; preds = %entry
  %1 = load i8*, i8** %arg.addr, align 8
  %2 = bitcast i8* %1 to %"class.tensorflow::AbstractTensorInterface"*
  store %"class.tensorflow::AbstractTensorInterface"* %2, %"class.tensorflow::AbstractTensorInterface"** %allocator, align 8
  br label %if.end

if.end:                                           ; preds = %if.else, %if.then
  %call1 = call zeroext i1 @_ZN10tensorflow9LogMemory9IsEnabledEv()
  br i1 %call1, label %land.lhs.true, label %if.end7

land.lhs.true:                                    ; preds = %if.end
  %3 = load i8*, i8** %data.addr, align 8
  %cmp2 = icmp ne i8* %3, null
  br i1 %cmp2, label %if.then3, label %if.end7

if.then3:                                         ; preds = %land.lhs.true
  call void @_ZNSaIcEC1Ev(%"class.std::ios_base::Init"* %ref.tmp4) #11
  invoke void @_ZNSt7__cxx1112basic_stringIcSt11char_traitsIcESaIcEEC2IS3_EEPKcRKS3_(%"class.std::__cxx11::basic_string"* %ref.tmp, i8* getelementptr inbounds ([17 x i8], [17 x i8]* @.str.2.1, i64 0, i64 0), %"class.std::ios_base::Init"* nonnull align 1 dereferenceable(1) %ref.tmp4)
          to label %invoke.cont unwind label %lpad

invoke.cont:                                      ; preds = %if.then3
  %4 = load i8*, i8** %data.addr, align 8
  %5 = load %"class.tensorflow::AbstractTensorInterface"*, %"class.tensorflow::AbstractTensorInterface"** %allocator, align 8
  invoke void @_ZN10tensorflow9LogMemory21RecordRawDeallocationERKNSt7__cxx1112basic_stringIcSt11char_traitsIcESaIcEEElPvPN3tsl9AllocatorEb(%"class.std::__cxx11::basic_string"* nonnull align 8 dereferenceable(32) %ref.tmp, i64 -3, i8* %4, %"class.tensorflow::AbstractTensorInterface"* %5, i1 zeroext false)
          to label %invoke.cont6 unwind label %lpad5

invoke.cont6:                                     ; preds = %invoke.cont
  call void @_ZNSt7__cxx1112basic_stringIcSt11char_traitsIcESaIcEED1Ev(%"class.std::__cxx11::basic_string"* %ref.tmp) #11
  call void @_ZNSaIcED1Ev(%"class.std::ios_base::Init"* %ref.tmp4) #11
  br label %if.end7

lpad:                                             ; preds = %if.then3
  %6 = landingpad { i8*, i32 }
          cleanup
  %7 = extractvalue { i8*, i32 } %6, 0
  store i8* %7, i8** %exn.slot, align 8
  %8 = extractvalue { i8*, i32 } %6, 1
  store i32 %8, i32* %ehselector.slot, align 4
  br label %ehcleanup

lpad5:                                            ; preds = %invoke.cont
  %9 = landingpad { i8*, i32 }
          cleanup
  %10 = extractvalue { i8*, i32 } %9, 0
  store i8* %10, i8** %exn.slot, align 8
  %11 = extractvalue { i8*, i32 } %9, 1
  store i32 %11, i32* %ehselector.slot, align 4
  call void @_ZNSt7__cxx1112basic_stringIcSt11char_traitsIcESaIcEED1Ev(%"class.std::__cxx11::basic_string"* %ref.tmp) #11
  br label %ehcleanup

ehcleanup:                                        ; preds = %lpad5, %lpad
  call void @_ZNSaIcED1Ev(%"class.std::ios_base::Init"* %ref.tmp4) #11
  br label %eh.resume

if.end7:                                          ; preds = %invoke.cont6, %land.lhs.true, %if.end
  %12 = load %"class.tensorflow::AbstractTensorInterface"*, %"class.tensorflow::AbstractTensorInterface"** %allocator, align 8
  %13 = load i8*, i8** %data.addr, align 8
  %14 = bitcast %"class.tensorflow::AbstractTensorInterface"* %12 to void (%"class.tensorflow::AbstractTensorInterface"*, i8*)***
  %vtable = load void (%"class.tensorflow::AbstractTensorInterface"*, i8*)**, void (%"class.tensorflow::AbstractTensorInterface"*, i8*)*** %14, align 8
  %vfn = getelementptr inbounds void (%"class.tensorflow::AbstractTensorInterface"*, i8*)*, void (%"class.tensorflow::AbstractTensorInterface"*, i8*)** %vtable, i64 5
  %15 = load void (%"class.tensorflow::AbstractTensorInterface"*, i8*)*, void (%"class.tensorflow::AbstractTensorInterface"*, i8*)** %vfn, align 8
  call void %15(%"class.tensorflow::AbstractTensorInterface"* %12, i8* %13)
  ret void

eh.resume:                                        ; preds = %ehcleanup
  %exn = load i8*, i8** %exn.slot, align 8
  %sel = load i32, i32* %ehselector.slot, align 4
  %lpad.val = insertvalue { i8*, i32 } undef, i8* %exn, 0
  %lpad.val8 = insertvalue { i8*, i32 } %lpad.val, i32 %sel, 1
  resume { i8*, i32 } %lpad.val8
}

declare dso_local void @_ZN10tensorflow9LogMemory21RecordRawDeallocationERKNSt7__cxx1112basic_stringIcSt11char_traitsIcESaIcEEElPvPN3tsl9AllocatorEb(%"class.std::__cxx11::basic_string"* nonnull align 8 dereferenceable(32), i64, i8*, %"class.tensorflow::AbstractTensorInterface"*, i1 zeroext) #4

; Function Attrs: noinline optnone uwtable
define dso_local %struct.TF_Tensor* @TF_AllocateTensor(i32 %dtype, i64* %dims, i32 %num_dims, i64 %len) #6 personality i8* bitcast (i32 (...)* @__gxx_personality_v0 to i8*) {
entry:
  %dtype.addr = alloca i32, align 4
  %dims.addr = alloca i64*, align 8
  %num_dims.addr = alloca i32, align 4
  %len.addr = alloca i64, align 8
  %data = alloca i8*, align 8
  %buf = alloca %class.TF_ManagedBuffer*, align 8
  %exn.slot = alloca i8*, align 8
  %ehselector.slot = alloca i32, align 4
  store i32 %dtype, i32* %dtype.addr, align 4
  store i64* %dims, i64** %dims.addr, align 8
  store i32 %num_dims, i32* %num_dims.addr, align 4
  store i64 %len, i64* %len.addr, align 8
  %0 = load i64, i64* %len.addr, align 8
  %call = call %"class.tensorflow::AbstractTensorInterface"* @_ZN3tsl13cpu_allocatorEi(i32 -1)
  %call1 = call i8* @_ZN10tensorflow15allocate_tensorEPKcmPN3tsl9AllocatorE(i8* getelementptr inbounds ([18 x i8], [18 x i8]* @.str.3, i64 0, i64 0), i64 %0, %"class.tensorflow::AbstractTensorInterface"* %call)
  store i8* %call1, i8** %data, align 8
  %call2 = call noalias nonnull i8* @_Znwm(i64 56) #21
  %1 = bitcast i8* %call2 to %class.TF_ManagedBuffer*
  %2 = load i8*, i8** %data, align 8
  %3 = load i64, i64* %len.addr, align 8
  %call3 = invoke %"class.tensorflow::AbstractTensorInterface"* @_ZN3tsl13cpu_allocatorEi(i32 -1)
          to label %invoke.cont unwind label %lpad

invoke.cont:                                      ; preds = %entry
  %4 = bitcast %"class.tensorflow::AbstractTensorInterface"* %call3 to i8*
  invoke void @_ZN16TF_ManagedBufferC2EPvmPFvS0_mS0_ES0_b(%class.TF_ManagedBuffer* %1, i8* %2, i64 %3, void (i8*, i64, i8*)* @_ZN10tensorflow17deallocate_bufferEPvmS0_, i8* %4, i1 zeroext true)
          to label %invoke.cont4 unwind label %lpad

invoke.cont4:                                     ; preds = %invoke.cont
  store %class.TF_ManagedBuffer* %1, %class.TF_ManagedBuffer** %buf, align 8
  %5 = load %class.TF_ManagedBuffer*, %class.TF_ManagedBuffer** %buf, align 8
  %6 = load i32, i32* %dtype.addr, align 4
  %7 = load i64*, i64** %dims.addr, align 8
  %8 = load i32, i32* %num_dims.addr, align 4
  %9 = load i64, i64* %len.addr, align 8
  %call5 = call %struct.TF_Tensor* @_ZN12_GLOBAL__N_112CreateTensorEP16TF_ManagedBuffer11TF_DataTypePKlim(%class.TF_ManagedBuffer* %5, i32 %6, i64* %7, i32 %8, i64 %9)
  ret %struct.TF_Tensor* %call5

lpad:                                             ; preds = %invoke.cont, %entry
  %10 = landingpad { i8*, i32 }
          cleanup
  %11 = extractvalue { i8*, i32 } %10, 0
  store i8* %11, i8** %exn.slot, align 8
  %12 = extractvalue { i8*, i32 } %10, 1
  store i32 %12, i32* %ehselector.slot, align 4
  call void @_ZdlPv(i8* %call2) #19
  br label %eh.resume

eh.resume:                                        ; preds = %lpad
  %exn = load i8*, i8** %exn.slot, align 8
  %sel = load i32, i32* %ehselector.slot, align 4
  %lpad.val = insertvalue { i8*, i32 } undef, i8* %exn, 0
  %lpad.val6 = insertvalue { i8*, i32 } %lpad.val, i32 %sel, 1
  resume { i8*, i32 } %lpad.val6
}

; Function Attrs: nobuiltin allocsize(0)
declare dso_local nonnull i8* @_Znwm(i64) #13

; Function Attrs: noinline optnone uwtable
define linkonce_odr dso_local void @_ZN16TF_ManagedBufferC2EPvmPFvS0_mS0_ES0_b(%class.TF_ManagedBuffer* %this, i8* %data, i64 %len, void (i8*, i64, i8*)* %deallocator, i8* %deallocator_arg, i1 zeroext %owns_memory) unnamed_addr #6 comdat align 2 {
entry:
  %this.addr = alloca %class.TF_ManagedBuffer*, align 8
  %data.addr = alloca i8*, align 8
  %len.addr = alloca i64, align 8
  %deallocator.addr = alloca void (i8*, i64, i8*)*, align 8
  %deallocator_arg.addr = alloca i8*, align 8
  %owns_memory.addr = alloca i8, align 1
  store %class.TF_ManagedBuffer* %this, %class.TF_ManagedBuffer** %this.addr, align 8
  store i8* %data, i8** %data.addr, align 8
  store i64 %len, i64* %len.addr, align 8
  store void (i8*, i64, i8*)* %deallocator, void (i8*, i64, i8*)** %deallocator.addr, align 8
  store i8* %deallocator_arg, i8** %deallocator_arg.addr, align 8
  %frombool = zext i1 %owns_memory to i8
  store i8 %frombool, i8* %owns_memory.addr, align 1
  %this1 = load %class.TF_ManagedBuffer*, %class.TF_ManagedBuffer** %this.addr, align 8
  %0 = bitcast %class.TF_ManagedBuffer* %this1 to %"class.tensorflow::TensorBuffer"*
  %1 = load i8*, i8** %data.addr, align 8
  call void @_ZN10tensorflow12TensorBufferC2EPv(%"class.tensorflow::TensorBuffer"* %0, i8* %1)
  %2 = bitcast %class.TF_ManagedBuffer* %this1 to i32 (...)***
  store i32 (...)** bitcast (i8** getelementptr inbounds ({ [11 x i8*] }, { [11 x i8*] }* @_ZTV16TF_ManagedBuffer, i32 0, inrange i32 0, i32 2) to i32 (...)**), i32 (...)*** %2, align 8
  %len_ = getelementptr inbounds %class.TF_ManagedBuffer, %class.TF_ManagedBuffer* %this1, i32 0, i32 1
  %3 = load i64, i64* %len.addr, align 8
  store i64 %3, i64* %len_, align 8
  %deallocator_ = getelementptr inbounds %class.TF_ManagedBuffer, %class.TF_ManagedBuffer* %this1, i32 0, i32 2
  %4 = load void (i8*, i64, i8*)*, void (i8*, i64, i8*)** %deallocator.addr, align 8
  store void (i8*, i64, i8*)* %4, void (i8*, i64, i8*)** %deallocator_, align 8
  %deallocator_arg_ = getelementptr inbounds %class.TF_ManagedBuffer, %class.TF_ManagedBuffer* %this1, i32 0, i32 3
  %5 = load i8*, i8** %deallocator_arg.addr, align 8
  store i8* %5, i8** %deallocator_arg_, align 8
  %owns_memory_ = getelementptr inbounds %class.TF_ManagedBuffer, %class.TF_ManagedBuffer* %this1, i32 0, i32 4
  %6 = load i8, i8* %owns_memory.addr, align 1
  %tobool = trunc i8 %6 to i1
  %frombool2 = zext i1 %tobool to i8
  store i8 %frombool2, i8* %owns_memory_, align 8
  ret void
}

; Function Attrs: noinline optnone uwtable
define internal %struct.TF_Tensor* @_ZN12_GLOBAL__N_112CreateTensorEP16TF_ManagedBuffer11TF_DataTypePKlim(%class.TF_ManagedBuffer* %buf, i32 %dtype, i64* %dims, i32 %num_dims, i64 %len) #6 personality i8* bitcast (i32 (...)* @__gxx_personality_v0 to i8*) {
entry:
  %retval = alloca %struct.TF_Tensor*, align 8
  %buf.addr = alloca %class.TF_ManagedBuffer*, align 8
  %dtype.addr = alloca i32, align 4
  %dims.addr = alloca i64*, align 8
  %num_dims.addr = alloca i32, align 4
  %len.addr = alloca i64, align 8
  %dimvec = alloca %"class.std::vector", align 8
  %ref.tmp = alloca %"class.std::ios_base::Init", align 1
  %exn.slot = alloca i8*, align 8
  %ehselector.slot = alloca i32, align 4
  %i = alloca i32, align 4
  %ret = alloca %"class.tensorflow::Tensor", align 8
  %ref.tmp2 = alloca %"class.tensorflow::TensorShape", align 8
  %agg.tmp = alloca %"struct.absl::lts_20250127::inlined_vector_internal::Storage<long, 4, std::allocator<long>>::Allocated", align 8
  %elem_size = alloca i64, align 8
  %cleanup.dest.slot = alloca i32, align 4
  %agg.tmp21 = alloca %"class.tensorflow::Tensor", align 8
  %cleanup.isactive = alloca i1, align 1
  %cleanup.isactive27 = alloca i1, align 1
  store %class.TF_ManagedBuffer* %buf, %class.TF_ManagedBuffer** %buf.addr, align 8
  store i32 %dtype, i32* %dtype.addr, align 4
  store i64* %dims, i64** %dims.addr, align 8
  store i32 %num_dims, i32* %num_dims.addr, align 4
  store i64 %len, i64* %len.addr, align 8
  %0 = load i32, i32* %num_dims.addr, align 4
  %conv = sext i32 %0 to i64
  call void @_ZNSaIlEC2Ev(%"class.std::ios_base::Init"* %ref.tmp) #11
  invoke void @_ZNSt6vectorIlSaIlEEC2EmRKS0_(%"class.std::vector"* %dimvec, i64 %conv, %"class.std::ios_base::Init"* nonnull align 1 dereferenceable(1) %ref.tmp)
          to label %invoke.cont unwind label %lpad

invoke.cont:                                      ; preds = %entry
  call void @_ZNSaIlED2Ev(%"class.std::ios_base::Init"* %ref.tmp) #11
  store i32 0, i32* %i, align 4
  br label %for.cond

for.cond:                                         ; preds = %for.inc, %invoke.cont
  %1 = load i32, i32* %i, align 4
  %2 = load i32, i32* %num_dims.addr, align 4
  %cmp = icmp slt i32 %1, %2
  br i1 %cmp, label %for.body, label %for.end

for.body:                                         ; preds = %for.cond
  %3 = load i64*, i64** %dims.addr, align 8
  %4 = load i32, i32* %i, align 4
  %idxprom = sext i32 %4 to i64
  %arrayidx = getelementptr inbounds i64, i64* %3, i64 %idxprom
  %5 = load i64, i64* %arrayidx, align 8
  %6 = load i32, i32* %i, align 4
  %conv1 = sext i32 %6 to i64
  %call = call nonnull align 8 dereferenceable(8) i64* @_ZNSt6vectorIlSaIlEEixEm(%"class.std::vector"* %dimvec, i64 %conv1) #11
  store i64 %5, i64* %call, align 8
  br label %for.inc

for.inc:                                          ; preds = %for.body
  %7 = load i32, i32* %i, align 4
  %inc = add nsw i32 %7, 1
  store i32 %inc, i32* %i, align 4
  br label %for.cond

lpad:                                             ; preds = %entry
  %8 = landingpad { i8*, i32 }
          cleanup
  %9 = extractvalue { i8*, i32 } %8, 0
  store i8* %9, i8** %exn.slot, align 8
  %10 = extractvalue { i8*, i32 } %8, 1
  store i32 %10, i32* %ehselector.slot, align 4
  call void @_ZNSaIlED2Ev(%"class.std::ios_base::Init"* %ref.tmp) #11
  br label %eh.resume

for.end:                                          ; preds = %for.cond
  %11 = load i32, i32* %dtype.addr, align 4
  call void @_ZN4absl12lts_202501274SpanIKlEC2ISt6vectorIlSaIlEEvS7_iEERKT_(%"struct.absl::lts_20250127::inlined_vector_internal::Storage<long, 4, std::allocator<long>>::Allocated"* %agg.tmp, %"class.std::vector"* nonnull align 8 dereferenceable(24) %dimvec) #11
  %12 = bitcast %"struct.absl::lts_20250127::inlined_vector_internal::Storage<long, 4, std::allocator<long>>::Allocated"* %agg.tmp to { i64*, i64 }*
  %13 = getelementptr inbounds { i64*, i64 }, { i64*, i64 }* %12, i32 0, i32 0
  %14 = load i64*, i64** %13, align 8
  %15 = getelementptr inbounds { i64*, i64 }, { i64*, i64 }* %12, i32 0, i32 1
  %16 = load i64, i64* %15, align 8
  invoke void @_ZN10tensorflow11TensorShapeCI2NS_15TensorShapeBaseIS0_EEEN4absl12lts_202501274SpanIKlEE(%"class.tensorflow::TensorShape"* %ref.tmp2, i64* %14, i64 %16)
          to label %invoke.cont4 unwind label %lpad3

invoke.cont4:                                     ; preds = %for.end
  %17 = load %class.TF_ManagedBuffer*, %class.TF_ManagedBuffer** %buf.addr, align 8
  %18 = bitcast %class.TF_ManagedBuffer* %17 to %"class.tensorflow::TensorBuffer"*
  invoke void @_ZN10tensorflow6TensorC1ENS_8DataTypeERKNS_11TensorShapeEPNS_12TensorBufferE(%"class.tensorflow::Tensor"* %ret, i32 %11, %"class.tensorflow::TensorShape"* nonnull align 8 dereferenceable(24) %ref.tmp2, %"class.tensorflow::TensorBuffer"* %18)
          to label %invoke.cont6 unwind label %lpad5

invoke.cont6:                                     ; preds = %invoke.cont4
  call void @_ZN10tensorflow11TensorShapeD2Ev(%"class.tensorflow::TensorShape"* %ref.tmp2) #11
  %19 = load %class.TF_ManagedBuffer*, %class.TF_ManagedBuffer** %buf.addr, align 8
  %20 = bitcast %class.TF_ManagedBuffer* %19 to %"class.tsl::core::RefCounted"*
  %call9 = invoke zeroext i1 @_ZNK3tsl4core10RefCounted5UnrefEv(%"class.tsl::core::RefCounted"* %20)
          to label %invoke.cont8 unwind label %lpad7

invoke.cont8:                                     ; preds = %invoke.cont6
  %21 = load i32, i32* %dtype.addr, align 4
  %call11 = invoke i64 @TF_DataTypeSize(i32 %21)
          to label %invoke.cont10 unwind label %lpad7

invoke.cont10:                                    ; preds = %invoke.cont8
  store i64 %call11, i64* %elem_size, align 8
  %22 = load i64, i64* %elem_size, align 8
  %cmp12 = icmp ugt i64 %22, 0
  br i1 %cmp12, label %land.lhs.true, label %if.end

land.lhs.true:                                    ; preds = %invoke.cont10
  %23 = load i64, i64* %len.addr, align 8
  %24 = load i64, i64* %elem_size, align 8
  %call14 = invoke i64 @_ZNK10tensorflow6Tensor11NumElementsEv(%"class.tensorflow::Tensor"* %ret)
          to label %invoke.cont13 unwind label %lpad7

invoke.cont13:                                    ; preds = %land.lhs.true
  %mul = mul i64 %24, %call14
  %cmp15 = icmp ult i64 %23, %mul
  br i1 %cmp15, label %if.then, label %if.end

if.then:                                          ; preds = %invoke.cont13
  store %struct.TF_Tensor* null, %struct.TF_Tensor** %retval, align 8
  store i32 1, i32* %cleanup.dest.slot, align 4
  br label %cleanup

lpad3:                                            ; preds = %for.end
  %25 = landingpad { i8*, i32 }
          cleanup
  %26 = extractvalue { i8*, i32 } %25, 0
  store i8* %26, i8** %exn.slot, align 8
  %27 = extractvalue { i8*, i32 } %25, 1
  store i32 %27, i32* %ehselector.slot, align 4
  br label %ehcleanup34

lpad5:                                            ; preds = %invoke.cont4
  %28 = landingpad { i8*, i32 }
          cleanup
  %29 = extractvalue { i8*, i32 } %28, 0
  store i8* %29, i8** %exn.slot, align 8
  %30 = extractvalue { i8*, i32 } %28, 1
  store i32 %30, i32* %ehselector.slot, align 4
  call void @_ZN10tensorflow11TensorShapeD2Ev(%"class.tensorflow::TensorShape"* %ref.tmp2) #11
  br label %ehcleanup34

lpad7:                                            ; preds = %if.end, %land.lhs.true, %invoke.cont8, %invoke.cont6
  %31 = landingpad { i8*, i32 }
          cleanup
  %32 = extractvalue { i8*, i32 } %31, 0
  store i8* %32, i8** %exn.slot, align 8
  %33 = extractvalue { i8*, i32 } %31, 1
  store i32 %33, i32* %ehselector.slot, align 4
  br label %ehcleanup32

if.end:                                           ; preds = %invoke.cont13, %invoke.cont10
  %call17 = invoke noalias nonnull i8* @_Znwm(i64 8) #21
          to label %invoke.cont16 unwind label %lpad7

invoke.cont16:                                    ; preds = %if.end
  store i1 true, i1* %cleanup.isactive27, align 1
  %34 = bitcast i8* %call17 to %struct.TF_Tensor*
  %tensor = getelementptr inbounds %struct.TF_Tensor, %struct.TF_Tensor* %34, i32 0, i32 0
  %call20 = invoke noalias nonnull i8* @_Znwm(i64 40) #21
          to label %invoke.cont19 unwind label %lpad18

invoke.cont19:                                    ; preds = %invoke.cont16
  store i1 true, i1* %cleanup.isactive, align 1
  %35 = bitcast i8* %call20 to %"class.tensorflow::TensorInterface"*
  %call22 = call nonnull align 8 dereferenceable(32) %"class.tensorflow::Tensor"* @_ZSt4moveIRN10tensorflow6TensorEEONSt16remove_referenceIT_E4typeEOS4_(%"class.tensorflow::Tensor"* nonnull align 8 dereferenceable(32) %ret) #11
  invoke void @_ZN10tensorflow6TensorC2EOS0_(%"class.tensorflow::Tensor"* %agg.tmp21, %"class.tensorflow::Tensor"* nonnull align 8 dereferenceable(32) %call22)
          to label %invoke.cont24 unwind label %lpad23

invoke.cont24:                                    ; preds = %invoke.cont19
  invoke void @_ZN10tensorflow15TensorInterfaceC2ENS_6TensorE(%"class.tensorflow::TensorInterface"* %35, %"class.tensorflow::Tensor"* %agg.tmp21)
          to label %invoke.cont26 unwind label %lpad25

invoke.cont26:                                    ; preds = %invoke.cont24
  store i1 false, i1* %cleanup.isactive, align 1
  %36 = bitcast %"class.tensorflow::TensorInterface"* %35 to %"class.tensorflow::AbstractTensorInterface"*
  store %"class.tensorflow::AbstractTensorInterface"* %36, %"class.tensorflow::AbstractTensorInterface"** %tensor, align 8
  store i1 false, i1* %cleanup.isactive27, align 1
  store %struct.TF_Tensor* %34, %struct.TF_Tensor** %retval, align 8
  call void @_ZN10tensorflow6TensorD1Ev(%"class.tensorflow::Tensor"* %agg.tmp21) #11
  store i32 1, i32* %cleanup.dest.slot, align 4
  br label %cleanup

lpad18:                                           ; preds = %invoke.cont16
  %37 = landingpad { i8*, i32 }
          cleanup
  %38 = extractvalue { i8*, i32 } %37, 0
  store i8* %38, i8** %exn.slot, align 8
  %39 = extractvalue { i8*, i32 } %37, 1
  store i32 %39, i32* %ehselector.slot, align 4
  br label %ehcleanup28

lpad23:                                           ; preds = %invoke.cont19
  %40 = landingpad { i8*, i32 }
          cleanup
  %41 = extractvalue { i8*, i32 } %40, 0
  store i8* %41, i8** %exn.slot, align 8
  %42 = extractvalue { i8*, i32 } %40, 1
  store i32 %42, i32* %ehselector.slot, align 4
  br label %ehcleanup

lpad25:                                           ; preds = %invoke.cont24
  %43 = landingpad { i8*, i32 }
          cleanup
  %44 = extractvalue { i8*, i32 } %43, 0
  store i8* %44, i8** %exn.slot, align 8
  %45 = extractvalue { i8*, i32 } %43, 1
  store i32 %45, i32* %ehselector.slot, align 4
  call void @_ZN10tensorflow6TensorD1Ev(%"class.tensorflow::Tensor"* %agg.tmp21) #11
  br label %ehcleanup

ehcleanup:                                        ; preds = %lpad25, %lpad23
  %cleanup.is_active = load i1, i1* %cleanup.isactive, align 1
  br i1 %cleanup.is_active, label %cleanup.action, label %cleanup.done

cleanup.action:                                   ; preds = %ehcleanup
  call void @_ZdlPv(i8* %call20) #19
  br label %cleanup.done

cleanup.done:                                     ; preds = %cleanup.action, %ehcleanup
  br label %ehcleanup28

ehcleanup28:                                      ; preds = %cleanup.done, %lpad18
  %cleanup.is_active29 = load i1, i1* %cleanup.isactive27, align 1
  br i1 %cleanup.is_active29, label %cleanup.action30, label %cleanup.done31

cleanup.action30:                                 ; preds = %ehcleanup28
  call void @_ZdlPv(i8* %call17) #19
  br label %cleanup.done31

cleanup.done31:                                   ; preds = %cleanup.action30, %ehcleanup28
  br label %ehcleanup32

cleanup:                                          ; preds = %invoke.cont26, %if.then
  call void @_ZN10tensorflow6TensorD1Ev(%"class.tensorflow::Tensor"* %ret) #11
  call void @_ZNSt6vectorIlSaIlEED2Ev(%"class.std::vector"* %dimvec) #11
  %46 = load %struct.TF_Tensor*, %struct.TF_Tensor** %retval, align 8
  ret %struct.TF_Tensor* %46

ehcleanup32:                                      ; preds = %cleanup.done31, %lpad7
  call void @_ZN10tensorflow6TensorD1Ev(%"class.tensorflow::Tensor"* %ret) #11
  br label %ehcleanup34

ehcleanup34:                                      ; preds = %ehcleanup32, %lpad5, %lpad3
  call void @_ZNSt6vectorIlSaIlEED2Ev(%"class.std::vector"* %dimvec) #11
  br label %eh.resume

eh.resume:                                        ; preds = %ehcleanup34, %lpad
  %exn = load i8*, i8** %exn.slot, align 8
  %sel = load i32, i32* %ehselector.slot, align 4
  %lpad.val = insertvalue { i8*, i32 } undef, i8* %exn, 0
  %lpad.val35 = insertvalue { i8*, i32 } %lpad.val, i32 %sel, 1
  resume { i8*, i32 } %lpad.val35
}

; Function Attrs: noinline nounwind optnone uwtable
define linkonce_odr dso_local void @_ZNSaIlEC2Ev(%"class.std::ios_base::Init"* %this) unnamed_addr #0 comdat align 2 {
entry:
  %this.addr = alloca %"class.std::ios_base::Init"*, align 8
  store %"class.std::ios_base::Init"* %this, %"class.std::ios_base::Init"** %this.addr, align 8
  %this1 = load %"class.std::ios_base::Init"*, %"class.std::ios_base::Init"** %this.addr, align 8
  %0 = bitcast %"class.std::ios_base::Init"* %this1 to %"class.std::ios_base::Init"*
  call void @_ZN9__gnu_cxx13new_allocatorIlEC2Ev(%"class.std::ios_base::Init"* %0) #11
  ret void
}

; Function Attrs: noinline optnone uwtable
define linkonce_odr dso_local void @_ZNSt6vectorIlSaIlEEC2EmRKS0_(%"class.std::vector"* %this, i64 %__n, %"class.std::ios_base::Init"* nonnull align 1 dereferenceable(1) %__a) unnamed_addr #6 comdat align 2 personality i8* bitcast (i32 (...)* @__gxx_personality_v0 to i8*) {
entry:
  %this.addr = alloca %"class.std::vector"*, align 8
  %__n.addr = alloca i64, align 8
  %__a.addr = alloca %"class.std::ios_base::Init"*, align 8
  %exn.slot = alloca i8*, align 8
  %ehselector.slot = alloca i32, align 4
  store %"class.std::vector"* %this, %"class.std::vector"** %this.addr, align 8
  store i64 %__n, i64* %__n.addr, align 8
  store %"class.std::ios_base::Init"* %__a, %"class.std::ios_base::Init"** %__a.addr, align 8
  %this1 = load %"class.std::vector"*, %"class.std::vector"** %this.addr, align 8
  %0 = bitcast %"class.std::vector"* %this1 to %"struct.std::_Vector_base"*
  %1 = load i64, i64* %__n.addr, align 8
  %2 = load %"class.std::ios_base::Init"*, %"class.std::ios_base::Init"** %__a.addr, align 8
  %call = call i64 @_ZNSt6vectorIlSaIlEE17_S_check_init_lenEmRKS0_(i64 %1, %"class.std::ios_base::Init"* nonnull align 1 dereferenceable(1) %2)
  %3 = load %"class.std::ios_base::Init"*, %"class.std::ios_base::Init"** %__a.addr, align 8
  call void @_ZNSt12_Vector_baseIlSaIlEEC2EmRKS0_(%"struct.std::_Vector_base"* %0, i64 %call, %"class.std::ios_base::Init"* nonnull align 1 dereferenceable(1) %3)
  %4 = load i64, i64* %__n.addr, align 8
  invoke void @_ZNSt6vectorIlSaIlEE21_M_default_initializeEm(%"class.std::vector"* %this1, i64 %4)
          to label %invoke.cont unwind label %lpad

invoke.cont:                                      ; preds = %entry
  ret void

lpad:                                             ; preds = %entry
  %5 = landingpad { i8*, i32 }
          cleanup
  %6 = extractvalue { i8*, i32 } %5, 0
  store i8* %6, i8** %exn.slot, align 8
  %7 = extractvalue { i8*, i32 } %5, 1
  store i32 %7, i32* %ehselector.slot, align 4
  %8 = bitcast %"class.std::vector"* %this1 to %"struct.std::_Vector_base"*
  call void @_ZNSt12_Vector_baseIlSaIlEED2Ev(%"struct.std::_Vector_base"* %8) #11
  br label %eh.resume

eh.resume:                                        ; preds = %lpad
  %exn = load i8*, i8** %exn.slot, align 8
  %sel = load i32, i32* %ehselector.slot, align 4
  %lpad.val = insertvalue { i8*, i32 } undef, i8* %exn, 0
  %lpad.val2 = insertvalue { i8*, i32 } %lpad.val, i32 %sel, 1
  resume { i8*, i32 } %lpad.val2
}

; Function Attrs: noinline nounwind optnone uwtable
define linkonce_odr dso_local void @_ZNSaIlED2Ev(%"class.std::ios_base::Init"* %this) unnamed_addr #0 comdat align 2 {
entry:
  %this.addr = alloca %"class.std::ios_base::Init"*, align 8
  store %"class.std::ios_base::Init"* %this, %"class.std::ios_base::Init"** %this.addr, align 8
  %this1 = load %"class.std::ios_base::Init"*, %"class.std::ios_base::Init"** %this.addr, align 8
  %0 = bitcast %"class.std::ios_base::Init"* %this1 to %"class.std::ios_base::Init"*
  call void @_ZN9__gnu_cxx13new_allocatorIlED2Ev(%"class.std::ios_base::Init"* %0) #11
  ret void
}

; Function Attrs: noinline nounwind optnone uwtable
define linkonce_odr dso_local nonnull align 8 dereferenceable(8) i64* @_ZNSt6vectorIlSaIlEEixEm(%"class.std::vector"* %this, i64 %__n) #0 comdat align 2 {
entry:
  %this.addr = alloca %"class.std::vector"*, align 8
  %__n.addr = alloca i64, align 8
  store %"class.std::vector"* %this, %"class.std::vector"** %this.addr, align 8
  store i64 %__n, i64* %__n.addr, align 8
  %this1 = load %"class.std::vector"*, %"class.std::vector"** %this.addr, align 8
  %0 = bitcast %"class.std::vector"* %this1 to %"struct.std::_Vector_base"*
  %_M_impl = getelementptr inbounds %"struct.std::_Vector_base", %"struct.std::_Vector_base"* %0, i32 0, i32 0
  %1 = bitcast %"struct.std::_Vector_base<long, std::allocator<long>>::_Vector_impl"* %_M_impl to %"struct.std::_Vector_base<long, std::allocator<long>>::_Vector_impl_data"*
  %_M_start = getelementptr inbounds %"struct.std::_Vector_base<long, std::allocator<long>>::_Vector_impl_data", %"struct.std::_Vector_base<long, std::allocator<long>>::_Vector_impl_data"* %1, i32 0, i32 0
  %2 = load i64*, i64** %_M_start, align 8
  %3 = load i64, i64* %__n.addr, align 8
  %add.ptr = getelementptr inbounds i64, i64* %2, i64 %3
  ret i64* %add.ptr
}

; Function Attrs: noinline nounwind optnone uwtable
define linkonce_odr dso_local void @_ZN4absl12lts_202501274SpanIKlEC2ISt6vectorIlSaIlEEvS7_iEERKT_(%"struct.absl::lts_20250127::inlined_vector_internal::Storage<long, 4, std::allocator<long>>::Allocated"* %this, %"class.std::vector"* nonnull align 8 dereferenceable(24) %v) unnamed_addr #0 comdat align 2 {
entry:
  %this.addr = alloca %"struct.absl::lts_20250127::inlined_vector_internal::Storage<long, 4, std::allocator<long>>::Allocated"*, align 8
  %v.addr = alloca %"class.std::vector"*, align 8
  store %"struct.absl::lts_20250127::inlined_vector_internal::Storage<long, 4, std::allocator<long>>::Allocated"* %this, %"struct.absl::lts_20250127::inlined_vector_internal::Storage<long, 4, std::allocator<long>>::Allocated"** %this.addr, align 8
  store %"class.std::vector"* %v, %"class.std::vector"** %v.addr, align 8
  %this1 = load %"struct.absl::lts_20250127::inlined_vector_internal::Storage<long, 4, std::allocator<long>>::Allocated"*, %"struct.absl::lts_20250127::inlined_vector_internal::Storage<long, 4, std::allocator<long>>::Allocated"** %this.addr, align 8
  %0 = load %"class.std::vector"*, %"class.std::vector"** %v.addr, align 8
  %call = call i64* @_ZN4absl12lts_2025012713span_internal7GetDataIKSt6vectorIlSaIlEEEEDTcl11GetDataImplfp_Li0EEERT_(%"class.std::vector"* nonnull align 8 dereferenceable(24) %0) #11
  %1 = load %"class.std::vector"*, %"class.std::vector"** %v.addr, align 8
  %call2 = call i64 @_ZNKSt6vectorIlSaIlEE4sizeEv(%"class.std::vector"* %1) #11
  call void @_ZN4absl12lts_202501274SpanIKlEC2EPS2_m(%"struct.absl::lts_20250127::inlined_vector_internal::Storage<long, 4, std::allocator<long>>::Allocated"* %this1, i64* %call, i64 %call2) #11
  ret void
}

; Function Attrs: noinline optnone uwtable
define linkonce_odr dso_local void @_ZN10tensorflow11TensorShapeCI2NS_15TensorShapeBaseIS0_EEEN4absl12lts_202501274SpanIKlEE(%"class.tensorflow::TensorShape"* %this, i64* %.coerce0, i64 %.coerce1) unnamed_addr #6 comdat align 2 {
entry:
  %0 = alloca %"struct.absl::lts_20250127::inlined_vector_internal::Storage<long, 4, std::allocator<long>>::Allocated", align 8
  %this.addr = alloca %"class.tensorflow::TensorShape"*, align 8
  %1 = bitcast %"struct.absl::lts_20250127::inlined_vector_internal::Storage<long, 4, std::allocator<long>>::Allocated"* %0 to { i64*, i64 }*
  %2 = getelementptr inbounds { i64*, i64 }, { i64*, i64 }* %1, i32 0, i32 0
  store i64* %.coerce0, i64** %2, align 8
  %3 = getelementptr inbounds { i64*, i64 }, { i64*, i64 }* %1, i32 0, i32 1
  store i64 %.coerce1, i64* %3, align 8
  store %"class.tensorflow::TensorShape"* %this, %"class.tensorflow::TensorShape"** %this.addr, align 8
  %this1 = load %"class.tensorflow::TensorShape"*, %"class.tensorflow::TensorShape"** %this.addr, align 8
  %4 = bitcast %"class.tensorflow::TensorShape"* %this1 to %"class.tensorflow::TensorShapeBase"*
  %5 = bitcast %"struct.absl::lts_20250127::inlined_vector_internal::Storage<long, 4, std::allocator<long>>::Allocated"* %0 to { i64*, i64 }*
  %6 = getelementptr inbounds { i64*, i64 }, { i64*, i64 }* %5, i32 0, i32 0
  %7 = load i64*, i64** %6, align 8
  %8 = getelementptr inbounds { i64*, i64 }, { i64*, i64 }* %5, i32 0, i32 1
  %9 = load i64, i64* %8, align 8
  call void @_ZN10tensorflow15TensorShapeBaseINS_11TensorShapeEEC2EN4absl12lts_202501274SpanIKlEE(%"class.tensorflow::TensorShapeBase"* %4, i64* %7, i64 %9)
  ret void
}

declare dso_local void @_ZN10tensorflow6TensorC1ENS_8DataTypeERKNS_11TensorShapeEPNS_12TensorBufferE(%"class.tensorflow::Tensor"*, i32, %"class.tensorflow::TensorShape"* nonnull align 8 dereferenceable(24), %"class.tensorflow::TensorBuffer"*) unnamed_addr #4

; Function Attrs: noinline nounwind optnone uwtable
define linkonce_odr dso_local void @_ZN10tensorflow11TensorShapeD2Ev(%"class.tensorflow::TensorShape"* %this) unnamed_addr #0 comdat align 2 {
entry:
  %this.addr = alloca %"class.tensorflow::TensorShape"*, align 8
  store %"class.tensorflow::TensorShape"* %this, %"class.tensorflow::TensorShape"** %this.addr, align 8
  %this1 = load %"class.tensorflow::TensorShape"*, %"class.tensorflow::TensorShape"** %this.addr, align 8
  %0 = bitcast %"class.tensorflow::TensorShape"* %this1 to %"class.tensorflow::TensorShapeBase"*
  call void @_ZN10tensorflow15TensorShapeBaseINS_11TensorShapeEED2Ev(%"class.tensorflow::TensorShapeBase"* %0) #11
  ret void
}

; Function Attrs: noinline optnone uwtable
define linkonce_odr dso_local zeroext i1 @_ZNK3tsl4core10RefCounted5UnrefEv(%"class.tsl::core::RefCounted"* %this) #6 comdat align 2 personality i8* bitcast (i32 (...)* @__gxx_personality_v0 to i8*) {
entry:
  %this.addr.i14 = alloca %"struct.absl::lts_20250127::container_internal::internal_compressed_tuple::Storage.4"*, align 8
  %__i.addr.i = alloca i64, align 8
  %__m.addr.i15 = alloca i32, align 4
  %.atomictmp.i = alloca i64, align 8
  %atomic-temp.i16 = alloca i64, align 8
  %this.addr.i = alloca %"struct.absl::lts_20250127::container_internal::internal_compressed_tuple::Storage.4"*, align 8
  %__m.addr.i = alloca i32, align 4
  %__b.i = alloca i32, align 4
  %atomic-temp.i = alloca i64, align 8
  %retval = alloca i1, align 1
  %this.addr = alloca %"class.tsl::core::RefCounted"*, align 8
  %_result = alloca %"struct.tsl::internal::CheckOpString", align 8
  %ref.tmp = alloca i64, align 8
  %ref.tmp3 = alloca i32, align 4
  %ref.tmp7 = alloca %"class.tsl::internal::LogMessageFatal", align 8
  %exn.slot = alloca i8*, align 8
  %ehselector.slot = alloca i32, align 4
  store %"class.tsl::core::RefCounted"* %this, %"class.tsl::core::RefCounted"** %this.addr, align 8
  %this1 = load %"class.tsl::core::RefCounted"*, %"class.tsl::core::RefCounted"** %this.addr, align 8
  br label %while.cond

while.cond:                                       ; preds = %entry
  %ref_ = getelementptr inbounds %"class.tsl::core::RefCounted", %"class.tsl::core::RefCounted"* %this1, i32 0, i32 1
  %0 = bitcast %"struct.absl::lts_20250127::container_internal::internal_compressed_tuple::CompressedTupleImpl"* %ref_ to %"struct.absl::lts_20250127::container_internal::internal_compressed_tuple::Storage.4"*
  store %"struct.absl::lts_20250127::container_internal::internal_compressed_tuple::Storage.4"* %0, %"struct.absl::lts_20250127::container_internal::internal_compressed_tuple::Storage.4"** %this.addr.i, align 8
  store i32 5, i32* %__m.addr.i, align 4
  %this1.i = load %"struct.absl::lts_20250127::container_internal::internal_compressed_tuple::Storage.4"*, %"struct.absl::lts_20250127::container_internal::internal_compressed_tuple::Storage.4"** %this.addr.i, align 8
  %1 = load i32, i32* %__m.addr.i, align 4
  %call.i = invoke i32 @_ZStanSt12memory_orderSt23__memory_order_modifier(i32 %1, i32 65535)
          to label %invoke.cont.i unwind label %terminate.lpad.i

invoke.cont.i:                                    ; preds = %while.cond
  store i32 %call.i, i32* %__b.i, align 4
  %_M_i.i = getelementptr inbounds %"struct.absl::lts_20250127::container_internal::internal_compressed_tuple::Storage.4", %"struct.absl::lts_20250127::container_internal::internal_compressed_tuple::Storage.4"* %this1.i, i32 0, i32 0
  %2 = load i32, i32* %__m.addr.i, align 4
  switch i32 %2, label %monotonic.i [
    i32 1, label %acquire.i
    i32 2, label %acquire.i
    i32 5, label %seqcst.i
  ]

monotonic.i:                                      ; preds = %invoke.cont.i
  %3 = load i64, i64* %_M_i.i, align 8
  store i64 %3, i64* %atomic-temp.i, align 8
  br label %_ZNKSt13__atomic_baseIlE4loadESt12memory_order.exit

acquire.i:                                        ; preds = %invoke.cont.i, %invoke.cont.i
  %4 = load i64, i64* %_M_i.i, align 8
  store i64 %4, i64* %atomic-temp.i, align 8
  br label %_ZNKSt13__atomic_baseIlE4loadESt12memory_order.exit

seqcst.i:                                         ; preds = %invoke.cont.i
  %5 = load i64, i64* %_M_i.i, align 8
  store i64 %5, i64* %atomic-temp.i, align 8
  br label %_ZNKSt13__atomic_baseIlE4loadESt12memory_order.exit

terminate.lpad.i:                                 ; preds = %while.cond
  %6 = landingpad { i8*, i32 }
          catch i8* null
  %7 = extractvalue { i8*, i32 } %6, 0
  call void @__clang_call_terminate(i8* %7) #16
  unreachable

_ZNKSt13__atomic_baseIlE4loadESt12memory_order.exit: ; preds = %monotonic.i, %acquire.i, %seqcst.i
  %8 = load i64, i64* %atomic-temp.i, align 8
  %call2 = call i64 @_ZN3tsl8internal21GetReferenceableValueEl(i64 %8)
  store i64 %call2, i64* %ref.tmp, align 8
  %call4 = call i32 @_ZN3tsl8internal21GetReferenceableValueEi(i32 0)
  store i32 %call4, i32* %ref.tmp3, align 4
  %call5 = call %"class.std::__cxx11::basic_string"* @_ZN3tsl8internal12Check_GTImplIliEEPNSt7__cxx1112basic_stringIcSt11char_traitsIcESaIcEEERKT_RKT0_PKc(i64* nonnull align 8 dereferenceable(8) %ref.tmp, i32* nonnull align 4 dereferenceable(4) %ref.tmp3, i8* getelementptr inbounds ([16 x i8], [16 x i8]* @.str.6, i64 0, i64 0))
  call void @_ZN3tsl8internal13CheckOpStringC2EPNSt7__cxx1112basic_stringIcSt11char_traitsIcESaIcEEE(%"struct.tsl::internal::CheckOpString"* %_result, %"class.std::__cxx11::basic_string"* %call5)
  %call6 = call zeroext i1 @_ZNK3tsl8internal13CheckOpStringcvbEv(%"struct.tsl::internal::CheckOpString"* %_result)
  br i1 %call6, label %while.body, label %while.end

while.body:                                       ; preds = %_ZNKSt13__atomic_baseIlE4loadESt12memory_order.exit
  call void @_ZN3tsl8internal15LogMessageFatalC1EPKci(%"class.tsl::internal::LogMessageFatal"* %ref.tmp7, i8* getelementptr inbounds ([98 x i8], [98 x i8]* @.str.1.2, i64 0, i64 0), i32 328) #22
  %str_ = getelementptr inbounds %"struct.tsl::internal::CheckOpString", %"struct.tsl::internal::CheckOpString"* %_result, i32 0, i32 0
  %9 = load %"class.std::__cxx11::basic_string"*, %"class.std::__cxx11::basic_string"** %str_, align 8
  %call8 = invoke nonnull align 8 dereferenceable(136) %"class.tsl::internal::LogMessageFatal"* @_ZStlsIN3tsl8internal15LogMessageFatalENSt7__cxx1112basic_stringIcSt11char_traitsIcESaIcEEEEOT_SA_RKT0_(%"class.tsl::internal::LogMessageFatal"* nonnull align 8 dereferenceable(136) %ref.tmp7, %"class.std::__cxx11::basic_string"* nonnull align 8 dereferenceable(32) %9)
          to label %invoke.cont unwind label %lpad

invoke.cont:                                      ; preds = %while.body
  call void @_ZN3tsl8internal15LogMessageFatalD1Ev(%"class.tsl::internal::LogMessageFatal"* %ref.tmp7) #16
  unreachable

lpad:                                             ; preds = %while.body
  %10 = landingpad { i8*, i32 }
          cleanup
  %11 = extractvalue { i8*, i32 } %10, 0
  store i8* %11, i8** %exn.slot, align 8
  %12 = extractvalue { i8*, i32 } %10, 1
  store i32 %12, i32* %ehselector.slot, align 4
  call void @_ZN3tsl8internal15LogMessageFatalD1Ev(%"class.tsl::internal::LogMessageFatal"* %ref.tmp7) #16
  unreachable

13:                                               ; No predecessors!
  br label %eh.resume

while.end:                                        ; preds = %_ZNKSt13__atomic_baseIlE4loadESt12memory_order.exit
  %ref_9 = getelementptr inbounds %"class.tsl::core::RefCounted", %"class.tsl::core::RefCounted"* %this1, i32 0, i32 1
  %14 = bitcast %"struct.absl::lts_20250127::container_internal::internal_compressed_tuple::CompressedTupleImpl"* %ref_9 to %"struct.absl::lts_20250127::container_internal::internal_compressed_tuple::Storage.4"*
  store %"struct.absl::lts_20250127::container_internal::internal_compressed_tuple::Storage.4"* %14, %"struct.absl::lts_20250127::container_internal::internal_compressed_tuple::Storage.4"** %this.addr.i14, align 8
  store i64 1, i64* %__i.addr.i, align 8
  store i32 4, i32* %__m.addr.i15, align 4
  %this1.i17 = load %"struct.absl::lts_20250127::container_internal::internal_compressed_tuple::Storage.4"*, %"struct.absl::lts_20250127::container_internal::internal_compressed_tuple::Storage.4"** %this.addr.i14, align 8
  %_M_i.i18 = getelementptr inbounds %"struct.absl::lts_20250127::container_internal::internal_compressed_tuple::Storage.4", %"struct.absl::lts_20250127::container_internal::internal_compressed_tuple::Storage.4"* %this1.i17, i32 0, i32 0
  %15 = load i32, i32* %__m.addr.i15, align 4
  %16 = load i64, i64* %__i.addr.i, align 8
  store i64 %16, i64* %.atomictmp.i, align 8
  switch i32 %15, label %monotonic.i19 [
    i32 1, label %acquire.i20
    i32 2, label %acquire.i20
    i32 3, label %release.i
    i32 4, label %acqrel.i
    i32 5, label %seqcst.i21
  ]

monotonic.i19:                                    ; preds = %while.end
  %17 = load i64, i64* %.atomictmp.i, align 8
  %18 = load i64, i64* %_M_i.i18, align 8
  %19 = sub i64 %18, %17
  store i64 %19, i64* %_M_i.i18, align 8
  store i64 %18, i64* %atomic-temp.i16, align 8
  br label %_ZNSt13__atomic_baseIlE9fetch_subElSt12memory_order.exit

acquire.i20:                                      ; preds = %while.end, %while.end
  %20 = load i64, i64* %.atomictmp.i, align 8
  %21 = load i64, i64* %_M_i.i18, align 8
  %22 = sub i64 %21, %20
  store i64 %22, i64* %_M_i.i18, align 8
  store i64 %21, i64* %atomic-temp.i16, align 8
  br label %_ZNSt13__atomic_baseIlE9fetch_subElSt12memory_order.exit

release.i:                                        ; preds = %while.end
  %23 = load i64, i64* %.atomictmp.i, align 8
  %24 = load i64, i64* %_M_i.i18, align 8
  %25 = sub i64 %24, %23
  store i64 %25, i64* %_M_i.i18, align 8
  store i64 %24, i64* %atomic-temp.i16, align 8
  br label %_ZNSt13__atomic_baseIlE9fetch_subElSt12memory_order.exit

acqrel.i:                                         ; preds = %while.end
  %26 = load i64, i64* %.atomictmp.i, align 8
  %27 = load i64, i64* %_M_i.i18, align 8
  %28 = sub i64 %27, %26
  store i64 %28, i64* %_M_i.i18, align 8
  store i64 %27, i64* %atomic-temp.i16, align 8
  br label %_ZNSt13__atomic_baseIlE9fetch_subElSt12memory_order.exit

seqcst.i21:                                       ; preds = %while.end
  %29 = load i64, i64* %.atomictmp.i, align 8
  %30 = load i64, i64* %_M_i.i18, align 8
  %31 = sub i64 %30, %29
  store i64 %31, i64* %_M_i.i18, align 8
  store i64 %30, i64* %atomic-temp.i16, align 8
  br label %_ZNSt13__atomic_baseIlE9fetch_subElSt12memory_order.exit

_ZNSt13__atomic_baseIlE9fetch_subElSt12memory_order.exit: ; preds = %monotonic.i19, %acquire.i20, %release.i, %acqrel.i, %seqcst.i21
  %32 = load i64, i64* %atomic-temp.i16, align 8
  %cmp = icmp eq i64 %32, 1
  br i1 %cmp, label %if.then, label %if.end

if.then:                                          ; preds = %_ZNSt13__atomic_baseIlE9fetch_subElSt12memory_order.exit
  %33 = bitcast %"class.tsl::core::RefCounted"* %this1 to void (%"class.tsl::core::RefCounted"*)***
  %vtable = load void (%"class.tsl::core::RefCounted"*)**, void (%"class.tsl::core::RefCounted"*)*** %33, align 8
  %vfn = getelementptr inbounds void (%"class.tsl::core::RefCounted"*)*, void (%"class.tsl::core::RefCounted"*)** %vtable, i64 2
  %34 = load void (%"class.tsl::core::RefCounted"*)*, void (%"class.tsl::core::RefCounted"*)** %vfn, align 8
  call void %34(%"class.tsl::core::RefCounted"* %this1)
  %isnull = icmp eq %"class.tsl::core::RefCounted"* %this1, null
  br i1 %isnull, label %delete.end, label %delete.notnull

delete.notnull:                                   ; preds = %if.then
  %35 = bitcast %"class.tsl::core::RefCounted"* %this1 to void (%"class.tsl::core::RefCounted"*)***
  %vtable11 = load void (%"class.tsl::core::RefCounted"*)**, void (%"class.tsl::core::RefCounted"*)*** %35, align 8
  %vfn12 = getelementptr inbounds void (%"class.tsl::core::RefCounted"*)*, void (%"class.tsl::core::RefCounted"*)** %vtable11, i64 1
  %36 = load void (%"class.tsl::core::RefCounted"*)*, void (%"class.tsl::core::RefCounted"*)** %vfn12, align 8
  call void %36(%"class.tsl::core::RefCounted"* %this1) #11
  br label %delete.end

delete.end:                                       ; preds = %delete.notnull, %if.then
  store i1 true, i1* %retval, align 1
  br label %return

if.end:                                           ; preds = %_ZNSt13__atomic_baseIlE9fetch_subElSt12memory_order.exit
  store i1 false, i1* %retval, align 1
  br label %return

return:                                           ; preds = %if.end, %delete.end
  %37 = load i1, i1* %retval, align 1
  ret i1 %37

eh.resume:                                        ; preds = %13
  %exn = load i8*, i8** %exn.slot, align 8
  %sel = load i32, i32* %ehselector.slot, align 4
  %lpad.val = insertvalue { i8*, i32 } undef, i8* %exn, 0
  %lpad.val13 = insertvalue { i8*, i32 } %lpad.val, i32 %sel, 1
  resume { i8*, i32 } %lpad.val13
}

declare dso_local i64 @TF_DataTypeSize(i32) #4

; Function Attrs: noinline nounwind optnone uwtable
define linkonce_odr dso_local nonnull align 8 dereferenceable(32) %"class.tensorflow::Tensor"* @_ZSt4moveIRN10tensorflow6TensorEEONSt16remove_referenceIT_E4typeEOS4_(%"class.tensorflow::Tensor"* nonnull align 8 dereferenceable(32) %__t) #0 comdat {
entry:
  %__t.addr = alloca %"class.tensorflow::Tensor"*, align 8
  store %"class.tensorflow::Tensor"* %__t, %"class.tensorflow::Tensor"** %__t.addr, align 8
  %0 = load %"class.tensorflow::Tensor"*, %"class.tensorflow::Tensor"** %__t.addr, align 8
  ret %"class.tensorflow::Tensor"* %0
}

; Function Attrs: noinline optnone uwtable
define linkonce_odr dso_local void @_ZN10tensorflow6TensorC2EOS0_(%"class.tensorflow::Tensor"* %this, %"class.tensorflow::Tensor"* nonnull align 8 dereferenceable(32) %other) unnamed_addr #6 comdat align 2 {
entry:
  %this.addr = alloca %"class.tensorflow::Tensor"*, align 8
  %other.addr = alloca %"class.tensorflow::Tensor"*, align 8
  store %"class.tensorflow::Tensor"* %this, %"class.tensorflow::Tensor"** %this.addr, align 8
  store %"class.tensorflow::Tensor"* %other, %"class.tensorflow::Tensor"** %other.addr, align 8
  %this1 = load %"class.tensorflow::Tensor"*, %"class.tensorflow::Tensor"** %this.addr, align 8
  %shape_ = getelementptr inbounds %"class.tensorflow::Tensor", %"class.tensorflow::Tensor"* %this1, i32 0, i32 0
  %0 = load %"class.tensorflow::Tensor"*, %"class.tensorflow::Tensor"** %other.addr, align 8
  %shape_2 = getelementptr inbounds %"class.tensorflow::Tensor", %"class.tensorflow::Tensor"* %0, i32 0, i32 0
  %call = call nonnull align 8 dereferenceable(24) %"class.tensorflow::TensorShape"* @_ZSt4moveIRN10tensorflow11TensorShapeEEONSt16remove_referenceIT_E4typeEOS4_(%"class.tensorflow::TensorShape"* nonnull align 8 dereferenceable(24) %shape_2) #11
  call void @_ZN10tensorflow11TensorShapeC2EOS0_(%"class.tensorflow::TensorShape"* %shape_, %"class.tensorflow::TensorShape"* nonnull align 8 dereferenceable(24) %call)
  %buf_ = getelementptr inbounds %"class.tensorflow::Tensor", %"class.tensorflow::Tensor"* %this1, i32 0, i32 1
  %1 = load %"class.tensorflow::Tensor"*, %"class.tensorflow::Tensor"** %other.addr, align 8
  %buf_3 = getelementptr inbounds %"class.tensorflow::Tensor", %"class.tensorflow::Tensor"* %1, i32 0, i32 1
  %2 = load %"class.tensorflow::TensorBuffer"*, %"class.tensorflow::TensorBuffer"** %buf_3, align 8
  store %"class.tensorflow::TensorBuffer"* %2, %"class.tensorflow::TensorBuffer"** %buf_, align 8
  %3 = load %"class.tensorflow::Tensor"*, %"class.tensorflow::Tensor"** %other.addr, align 8
  %buf_4 = getelementptr inbounds %"class.tensorflow::Tensor", %"class.tensorflow::Tensor"* %3, i32 0, i32 1
  store %"class.tensorflow::TensorBuffer"* null, %"class.tensorflow::TensorBuffer"** %buf_4, align 8
  ret void
}

; Function Attrs: noinline optnone uwtable
define linkonce_odr dso_local void @_ZN10tensorflow15TensorInterfaceC2ENS_6TensorE(%"class.tensorflow::TensorInterface"* %this, %"class.tensorflow::Tensor"* %t) unnamed_addr #6 comdat align 2 personality i8* bitcast (i32 (...)* @__gxx_personality_v0 to i8*) {
entry:
  %this.addr = alloca %"class.tensorflow::TensorInterface"*, align 8
  %exn.slot = alloca i8*, align 8
  %ehselector.slot = alloca i32, align 4
  store %"class.tensorflow::TensorInterface"* %this, %"class.tensorflow::TensorInterface"** %this.addr, align 8
  %this1 = load %"class.tensorflow::TensorInterface"*, %"class.tensorflow::TensorInterface"** %this.addr, align 8
  %0 = bitcast %"class.tensorflow::TensorInterface"* %this1 to %"class.tensorflow::AbstractTensorInterface"*
  call void @_ZN10tensorflow23AbstractTensorInterfaceC2Ev(%"class.tensorflow::AbstractTensorInterface"* %0) #11
  %1 = bitcast %"class.tensorflow::TensorInterface"* %this1 to i32 (...)***
  store i32 (...)** bitcast (i8** getelementptr inbounds ({ [14 x i8*] }, { [14 x i8*] }* @_ZTVN10tensorflow15TensorInterfaceE, i32 0, inrange i32 0, i32 2) to i32 (...)**), i32 (...)*** %1, align 8
  %tensor_ = getelementptr inbounds %"class.tensorflow::TensorInterface", %"class.tensorflow::TensorInterface"* %this1, i32 0, i32 1
  %call = call nonnull align 8 dereferenceable(32) %"class.tensorflow::Tensor"* @_ZSt4moveIRN10tensorflow6TensorEEONSt16remove_referenceIT_E4typeEOS4_(%"class.tensorflow::Tensor"* nonnull align 8 dereferenceable(32) %t) #11
  invoke void @_ZN10tensorflow6TensorC2EOS0_(%"class.tensorflow::Tensor"* %tensor_, %"class.tensorflow::Tensor"* nonnull align 8 dereferenceable(32) %call)
          to label %invoke.cont unwind label %lpad

invoke.cont:                                      ; preds = %entry
  ret void

lpad:                                             ; preds = %entry
  %2 = landingpad { i8*, i32 }
          cleanup
  %3 = extractvalue { i8*, i32 } %2, 0
  store i8* %3, i8** %exn.slot, align 8
  %4 = extractvalue { i8*, i32 } %2, 1
  store i32 %4, i32* %ehselector.slot, align 4
  %5 = bitcast %"class.tensorflow::TensorInterface"* %this1 to %"class.tensorflow::AbstractTensorInterface"*
  call void @_ZN10tensorflow23AbstractTensorInterfaceD2Ev(%"class.tensorflow::AbstractTensorInterface"* %5) #11
  br label %eh.resume

eh.resume:                                        ; preds = %lpad
  %exn = load i8*, i8** %exn.slot, align 8
  %sel = load i32, i32* %ehselector.slot, align 4
  %lpad.val = insertvalue { i8*, i32 } undef, i8* %exn, 0
  %lpad.val2 = insertvalue { i8*, i32 } %lpad.val, i32 %sel, 1
  resume { i8*, i32 } %lpad.val2
}

; Function Attrs: noinline nounwind optnone uwtable
define linkonce_odr dso_local void @_ZNSt6vectorIlSaIlEED2Ev(%"class.std::vector"* %this) unnamed_addr #0 comdat align 2 personality i8* bitcast (i32 (...)* @__gxx_personality_v0 to i8*) {
entry:
  %this.addr = alloca %"class.std::vector"*, align 8
  %exn.slot = alloca i8*, align 8
  %ehselector.slot = alloca i32, align 4
  store %"class.std::vector"* %this, %"class.std::vector"** %this.addr, align 8
  %this1 = load %"class.std::vector"*, %"class.std::vector"** %this.addr, align 8
  %0 = bitcast %"class.std::vector"* %this1 to %"struct.std::_Vector_base"*
  %_M_impl = getelementptr inbounds %"struct.std::_Vector_base", %"struct.std::_Vector_base"* %0, i32 0, i32 0
  %1 = bitcast %"struct.std::_Vector_base<long, std::allocator<long>>::_Vector_impl"* %_M_impl to %"struct.std::_Vector_base<long, std::allocator<long>>::_Vector_impl_data"*
  %_M_start = getelementptr inbounds %"struct.std::_Vector_base<long, std::allocator<long>>::_Vector_impl_data", %"struct.std::_Vector_base<long, std::allocator<long>>::_Vector_impl_data"* %1, i32 0, i32 0
  %2 = load i64*, i64** %_M_start, align 8
  %3 = bitcast %"class.std::vector"* %this1 to %"struct.std::_Vector_base"*
  %_M_impl2 = getelementptr inbounds %"struct.std::_Vector_base", %"struct.std::_Vector_base"* %3, i32 0, i32 0
  %4 = bitcast %"struct.std::_Vector_base<long, std::allocator<long>>::_Vector_impl"* %_M_impl2 to %"struct.std::_Vector_base<long, std::allocator<long>>::_Vector_impl_data"*
  %_M_finish = getelementptr inbounds %"struct.std::_Vector_base<long, std::allocator<long>>::_Vector_impl_data", %"struct.std::_Vector_base<long, std::allocator<long>>::_Vector_impl_data"* %4, i32 0, i32 1
  %5 = load i64*, i64** %_M_finish, align 8
  %6 = bitcast %"class.std::vector"* %this1 to %"struct.std::_Vector_base"*
  %call = call nonnull align 1 dereferenceable(1) %"class.std::ios_base::Init"* @_ZNSt12_Vector_baseIlSaIlEE19_M_get_Tp_allocatorEv(%"struct.std::_Vector_base"* %6) #11
  invoke void @_ZSt8_DestroyIPllEvT_S1_RSaIT0_E(i64* %2, i64* %5, %"class.std::ios_base::Init"* nonnull align 1 dereferenceable(1) %call)
          to label %invoke.cont unwind label %lpad

invoke.cont:                                      ; preds = %entry
  %7 = bitcast %"class.std::vector"* %this1 to %"struct.std::_Vector_base"*
  call void @_ZNSt12_Vector_baseIlSaIlEED2Ev(%"struct.std::_Vector_base"* %7) #11
  ret void

lpad:                                             ; preds = %entry
  %8 = landingpad { i8*, i32 }
          catch i8* null
  %9 = extractvalue { i8*, i32 } %8, 0
  store i8* %9, i8** %exn.slot, align 8
  %10 = extractvalue { i8*, i32 } %8, 1
  store i32 %10, i32* %ehselector.slot, align 4
  %11 = bitcast %"class.std::vector"* %this1 to %"struct.std::_Vector_base"*
  call void @_ZNSt12_Vector_baseIlSaIlEED2Ev(%"struct.std::_Vector_base"* %11) #11
  br label %terminate.handler

terminate.handler:                                ; preds = %lpad
  %exn = load i8*, i8** %exn.slot, align 8
  call void @__clang_call_terminate(i8* %exn) #16
  unreachable
}

; Function Attrs: noinline nounwind optnone uwtable
define linkonce_odr dso_local nonnull align 1 dereferenceable(1) %"class.std::ios_base::Init"* @_ZNSt12_Vector_baseIlSaIlEE19_M_get_Tp_allocatorEv(%"struct.std::_Vector_base"* %this) #0 comdat align 2 {
entry:
  %this.addr = alloca %"struct.std::_Vector_base"*, align 8
  store %"struct.std::_Vector_base"* %this, %"struct.std::_Vector_base"** %this.addr, align 8
  %this1 = load %"struct.std::_Vector_base"*, %"struct.std::_Vector_base"** %this.addr, align 8
  %_M_impl = getelementptr inbounds %"struct.std::_Vector_base", %"struct.std::_Vector_base"* %this1, i32 0, i32 0
  %0 = bitcast %"struct.std::_Vector_base<long, std::allocator<long>>::_Vector_impl"* %_M_impl to %"class.std::ios_base::Init"*
  ret %"class.std::ios_base::Init"* %0
}

; Function Attrs: noinline optnone uwtable
define linkonce_odr dso_local void @_ZSt8_DestroyIPllEvT_S1_RSaIT0_E(i64* %__first, i64* %__last, %"class.std::ios_base::Init"* nonnull align 1 dereferenceable(1) %0) #6 comdat {
entry:
  %__first.addr = alloca i64*, align 8
  %__last.addr = alloca i64*, align 8
  %.addr = alloca %"class.std::ios_base::Init"*, align 8
  store i64* %__first, i64** %__first.addr, align 8
  store i64* %__last, i64** %__last.addr, align 8
  store %"class.std::ios_base::Init"* %0, %"class.std::ios_base::Init"** %.addr, align 8
  %1 = load i64*, i64** %__first.addr, align 8
  %2 = load i64*, i64** %__last.addr, align 8
  call void @_ZSt8_DestroyIPlEvT_S1_(i64* %1, i64* %2)
  ret void
}

; Function Attrs: noinline nounwind optnone uwtable
define linkonce_odr dso_local void @_ZNSt12_Vector_baseIlSaIlEED2Ev(%"struct.std::_Vector_base"* %this) unnamed_addr #0 comdat align 2 personality i8* bitcast (i32 (...)* @__gxx_personality_v0 to i8*) {
entry:
  %this.addr = alloca %"struct.std::_Vector_base"*, align 8
  %exn.slot = alloca i8*, align 8
  %ehselector.slot = alloca i32, align 4
  store %"struct.std::_Vector_base"* %this, %"struct.std::_Vector_base"** %this.addr, align 8
  %this1 = load %"struct.std::_Vector_base"*, %"struct.std::_Vector_base"** %this.addr, align 8
  %_M_impl = getelementptr inbounds %"struct.std::_Vector_base", %"struct.std::_Vector_base"* %this1, i32 0, i32 0
  %0 = bitcast %"struct.std::_Vector_base<long, std::allocator<long>>::_Vector_impl"* %_M_impl to %"struct.std::_Vector_base<long, std::allocator<long>>::_Vector_impl_data"*
  %_M_start = getelementptr inbounds %"struct.std::_Vector_base<long, std::allocator<long>>::_Vector_impl_data", %"struct.std::_Vector_base<long, std::allocator<long>>::_Vector_impl_data"* %0, i32 0, i32 0
  %1 = load i64*, i64** %_M_start, align 8
  %_M_impl2 = getelementptr inbounds %"struct.std::_Vector_base", %"struct.std::_Vector_base"* %this1, i32 0, i32 0
  %2 = bitcast %"struct.std::_Vector_base<long, std::allocator<long>>::_Vector_impl"* %_M_impl2 to %"struct.std::_Vector_base<long, std::allocator<long>>::_Vector_impl_data"*
  %_M_end_of_storage = getelementptr inbounds %"struct.std::_Vector_base<long, std::allocator<long>>::_Vector_impl_data", %"struct.std::_Vector_base<long, std::allocator<long>>::_Vector_impl_data"* %2, i32 0, i32 2
  %3 = load i64*, i64** %_M_end_of_storage, align 8
  %_M_impl3 = getelementptr inbounds %"struct.std::_Vector_base", %"struct.std::_Vector_base"* %this1, i32 0, i32 0
  %4 = bitcast %"struct.std::_Vector_base<long, std::allocator<long>>::_Vector_impl"* %_M_impl3 to %"struct.std::_Vector_base<long, std::allocator<long>>::_Vector_impl_data"*
  %_M_start4 = getelementptr inbounds %"struct.std::_Vector_base<long, std::allocator<long>>::_Vector_impl_data", %"struct.std::_Vector_base<long, std::allocator<long>>::_Vector_impl_data"* %4, i32 0, i32 0
  %5 = load i64*, i64** %_M_start4, align 8
  %sub.ptr.lhs.cast = ptrtoint i64* %3 to i64
  %sub.ptr.rhs.cast = ptrtoint i64* %5 to i64
  %sub.ptr.sub = sub i64 %sub.ptr.lhs.cast, %sub.ptr.rhs.cast
  %sub.ptr.div = sdiv exact i64 %sub.ptr.sub, 8
  invoke void @_ZNSt12_Vector_baseIlSaIlEE13_M_deallocateEPlm(%"struct.std::_Vector_base"* %this1, i64* %1, i64 %sub.ptr.div)
          to label %invoke.cont unwind label %lpad

invoke.cont:                                      ; preds = %entry
  %_M_impl5 = getelementptr inbounds %"struct.std::_Vector_base", %"struct.std::_Vector_base"* %this1, i32 0, i32 0
  call void @_ZNSt12_Vector_baseIlSaIlEE12_Vector_implD2Ev(%"struct.std::_Vector_base<long, std::allocator<long>>::_Vector_impl"* %_M_impl5) #11
  ret void

lpad:                                             ; preds = %entry
  %6 = landingpad { i8*, i32 }
          catch i8* null
  %7 = extractvalue { i8*, i32 } %6, 0
  store i8* %7, i8** %exn.slot, align 8
  %8 = extractvalue { i8*, i32 } %6, 1
  store i32 %8, i32* %ehselector.slot, align 4
  %_M_impl6 = getelementptr inbounds %"struct.std::_Vector_base", %"struct.std::_Vector_base"* %this1, i32 0, i32 0
  call void @_ZNSt12_Vector_baseIlSaIlEE12_Vector_implD2Ev(%"struct.std::_Vector_base<long, std::allocator<long>>::_Vector_impl"* %_M_impl6) #11
  br label %terminate.handler

terminate.handler:                                ; preds = %lpad
  %exn = load i8*, i8** %exn.slot, align 8
  call void @__clang_call_terminate(i8* %exn) #16
  unreachable
}

; Function Attrs: noinline optnone uwtable
define linkonce_odr dso_local void @_ZNSt12_Vector_baseIlSaIlEE13_M_deallocateEPlm(%"struct.std::_Vector_base"* %this, i64* %__p, i64 %__n) #6 comdat align 2 {
entry:
  %this.addr = alloca %"struct.std::_Vector_base"*, align 8
  %__p.addr = alloca i64*, align 8
  %__n.addr = alloca i64, align 8
  store %"struct.std::_Vector_base"* %this, %"struct.std::_Vector_base"** %this.addr, align 8
  store i64* %__p, i64** %__p.addr, align 8
  store i64 %__n, i64* %__n.addr, align 8
  %this1 = load %"struct.std::_Vector_base"*, %"struct.std::_Vector_base"** %this.addr, align 8
  %0 = load i64*, i64** %__p.addr, align 8
  %tobool = icmp ne i64* %0, null
  br i1 %tobool, label %if.then, label %if.end

if.then:                                          ; preds = %entry
  %_M_impl = getelementptr inbounds %"struct.std::_Vector_base", %"struct.std::_Vector_base"* %this1, i32 0, i32 0
  %1 = bitcast %"struct.std::_Vector_base<long, std::allocator<long>>::_Vector_impl"* %_M_impl to %"class.std::ios_base::Init"*
  %2 = load i64*, i64** %__p.addr, align 8
  %3 = load i64, i64* %__n.addr, align 8
  call void @_ZNSt16allocator_traitsISaIlEE10deallocateERS0_Plm(%"class.std::ios_base::Init"* nonnull align 1 dereferenceable(1) %1, i64* %2, i64 %3)
  br label %if.end

if.end:                                           ; preds = %if.then, %entry
  ret void
}

; Function Attrs: noinline nounwind optnone uwtable
define linkonce_odr dso_local void @_ZNSt12_Vector_baseIlSaIlEE12_Vector_implD2Ev(%"struct.std::_Vector_base<long, std::allocator<long>>::_Vector_impl"* %this) unnamed_addr #0 comdat align 2 {
entry:
  %this.addr = alloca %"struct.std::_Vector_base<long, std::allocator<long>>::_Vector_impl"*, align 8
  store %"struct.std::_Vector_base<long, std::allocator<long>>::_Vector_impl"* %this, %"struct.std::_Vector_base<long, std::allocator<long>>::_Vector_impl"** %this.addr, align 8
  %this1 = load %"struct.std::_Vector_base<long, std::allocator<long>>::_Vector_impl"*, %"struct.std::_Vector_base<long, std::allocator<long>>::_Vector_impl"** %this.addr, align 8
  %0 = bitcast %"struct.std::_Vector_base<long, std::allocator<long>>::_Vector_impl"* %this1 to %"class.std::ios_base::Init"*
  call void @_ZNSaIlED2Ev(%"class.std::ios_base::Init"* %0) #11
  ret void
}

; Function Attrs: noinline optnone uwtable
define linkonce_odr dso_local void @_ZNSt16allocator_traitsISaIlEE10deallocateERS0_Plm(%"class.std::ios_base::Init"* nonnull align 1 dereferenceable(1) %__a, i64* %__p, i64 %__n) #6 comdat align 2 {
entry:
  %__a.addr = alloca %"class.std::ios_base::Init"*, align 8
  %__p.addr = alloca i64*, align 8
  %__n.addr = alloca i64, align 8
  store %"class.std::ios_base::Init"* %__a, %"class.std::ios_base::Init"** %__a.addr, align 8
  store i64* %__p, i64** %__p.addr, align 8
  store i64 %__n, i64* %__n.addr, align 8
  %0 = load %"class.std::ios_base::Init"*, %"class.std::ios_base::Init"** %__a.addr, align 8
  %1 = bitcast %"class.std::ios_base::Init"* %0 to %"class.std::ios_base::Init"*
  %2 = load i64*, i64** %__p.addr, align 8
  %3 = load i64, i64* %__n.addr, align 8
  call void @_ZN9__gnu_cxx13new_allocatorIlE10deallocateEPlm(%"class.std::ios_base::Init"* %1, i64* %2, i64 %3)
  ret void
}

; Function Attrs: noinline nounwind optnone uwtable
define linkonce_odr dso_local void @_ZN9__gnu_cxx13new_allocatorIlE10deallocateEPlm(%"class.std::ios_base::Init"* %this, i64* %__p, i64 %__t) #0 comdat align 2 {
entry:
  %this.addr = alloca %"class.std::ios_base::Init"*, align 8
  %__p.addr = alloca i64*, align 8
  %__t.addr = alloca i64, align 8
  store %"class.std::ios_base::Init"* %this, %"class.std::ios_base::Init"** %this.addr, align 8
  store i64* %__p, i64** %__p.addr, align 8
  store i64 %__t, i64* %__t.addr, align 8
  %this1 = load %"class.std::ios_base::Init"*, %"class.std::ios_base::Init"** %this.addr, align 8
  %0 = load i64*, i64** %__p.addr, align 8
  %1 = bitcast i64* %0 to i8*
  call void @_ZdlPv(i8* %1) #11
  ret void
}

; Function Attrs: noinline optnone uwtable
define linkonce_odr dso_local void @_ZSt8_DestroyIPlEvT_S1_(i64* %__first, i64* %__last) #6 comdat {
entry:
  %__first.addr = alloca i64*, align 8
  %__last.addr = alloca i64*, align 8
  store i64* %__first, i64** %__first.addr, align 8
  store i64* %__last, i64** %__last.addr, align 8
  %0 = load i64*, i64** %__first.addr, align 8
  %1 = load i64*, i64** %__last.addr, align 8
  call void @_ZNSt12_Destroy_auxILb1EE9__destroyIPlEEvT_S3_(i64* %0, i64* %1)
  ret void
}

; Function Attrs: noinline nounwind optnone uwtable
define linkonce_odr dso_local void @_ZNSt12_Destroy_auxILb1EE9__destroyIPlEEvT_S3_(i64* %0, i64* %1) #0 comdat align 2 {
entry:
  %.addr = alloca i64*, align 8
  %.addr1 = alloca i64*, align 8
  store i64* %0, i64** %.addr, align 8
  store i64* %1, i64** %.addr1, align 8
  ret void
}

; Function Attrs: noinline nounwind optnone uwtable
define linkonce_odr dso_local void @_ZN10tensorflow23AbstractTensorInterfaceC2Ev(%"class.tensorflow::AbstractTensorInterface"* %this) unnamed_addr #0 comdat align 2 {
entry:
  %this.addr = alloca %"class.tensorflow::AbstractTensorInterface"*, align 8
  store %"class.tensorflow::AbstractTensorInterface"* %this, %"class.tensorflow::AbstractTensorInterface"** %this.addr, align 8
  %this1 = load %"class.tensorflow::AbstractTensorInterface"*, %"class.tensorflow::AbstractTensorInterface"** %this.addr, align 8
  %0 = bitcast %"class.tensorflow::AbstractTensorInterface"* %this1 to i32 (...)***
  store i32 (...)** bitcast (i8** getelementptr inbounds ({ [14 x i8*] }, { [14 x i8*] }* @_ZTVN10tensorflow23AbstractTensorInterfaceE, i32 0, inrange i32 0, i32 2) to i32 (...)**), i32 (...)*** %0, align 8
  ret void
}

declare dso_local void @__cxa_pure_virtual() unnamed_addr

; Function Attrs: noinline nounwind optnone uwtable
define linkonce_odr dso_local void @_ZN10tensorflow23AbstractTensorInterfaceD0Ev(%"class.tensorflow::AbstractTensorInterface"* %this) unnamed_addr #0 comdat align 2 {
entry:
  %this.addr = alloca %"class.tensorflow::AbstractTensorInterface"*, align 8
  store %"class.tensorflow::AbstractTensorInterface"* %this, %"class.tensorflow::AbstractTensorInterface"** %this.addr, align 8
  %this1 = load %"class.tensorflow::AbstractTensorInterface"*, %"class.tensorflow::AbstractTensorInterface"** %this.addr, align 8
  call void @abort()
  unreachable
}

; Function Attrs: noinline nounwind optnone uwtable
define linkonce_odr dso_local nonnull align 8 dereferenceable(24) %"class.tensorflow::TensorShape"* @_ZSt4moveIRN10tensorflow11TensorShapeEEONSt16remove_referenceIT_E4typeEOS4_(%"class.tensorflow::TensorShape"* nonnull align 8 dereferenceable(24) %__t) #0 comdat {
entry:
  %__t.addr = alloca %"class.tensorflow::TensorShape"*, align 8
  store %"class.tensorflow::TensorShape"* %__t, %"class.tensorflow::TensorShape"** %__t.addr, align 8
  %0 = load %"class.tensorflow::TensorShape"*, %"class.tensorflow::TensorShape"** %__t.addr, align 8
  ret %"class.tensorflow::TensorShape"* %0
}

; Function Attrs: noinline optnone uwtable
define linkonce_odr dso_local void @_ZN10tensorflow11TensorShapeC2EOS0_(%"class.tensorflow::TensorShape"* %this, %"class.tensorflow::TensorShape"* nonnull align 8 dereferenceable(24) %0) unnamed_addr #6 comdat align 2 {
entry:
  %this.addr = alloca %"class.tensorflow::TensorShape"*, align 8
  %.addr = alloca %"class.tensorflow::TensorShape"*, align 8
  store %"class.tensorflow::TensorShape"* %this, %"class.tensorflow::TensorShape"** %this.addr, align 8
  store %"class.tensorflow::TensorShape"* %0, %"class.tensorflow::TensorShape"** %.addr, align 8
  %this1 = load %"class.tensorflow::TensorShape"*, %"class.tensorflow::TensorShape"** %this.addr, align 8
  %1 = bitcast %"class.tensorflow::TensorShape"* %this1 to %"class.tensorflow::TensorShapeBase"*
  %2 = load %"class.tensorflow::TensorShape"*, %"class.tensorflow::TensorShape"** %.addr, align 8
  %3 = bitcast %"class.tensorflow::TensorShape"* %2 to %"class.tensorflow::TensorShapeBase"*
  call void @_ZN10tensorflow15TensorShapeBaseINS_11TensorShapeEEC2EOS2_(%"class.tensorflow::TensorShapeBase"* %1, %"class.tensorflow::TensorShapeBase"* nonnull align 8 dereferenceable(24) %3)
  ret void
}

; Function Attrs: noinline optnone uwtable
define linkonce_odr dso_local void @_ZN10tensorflow15TensorShapeBaseINS_11TensorShapeEEC2EOS2_(%"class.tensorflow::TensorShapeBase"* %this, %"class.tensorflow::TensorShapeBase"* nonnull align 8 dereferenceable(24) %0) unnamed_addr #6 comdat align 2 {
entry:
  %this.addr = alloca %"class.tensorflow::TensorShapeBase"*, align 8
  %.addr = alloca %"class.tensorflow::TensorShapeBase"*, align 8
  store %"class.tensorflow::TensorShapeBase"* %this, %"class.tensorflow::TensorShapeBase"** %this.addr, align 8
  store %"class.tensorflow::TensorShapeBase"* %0, %"class.tensorflow::TensorShapeBase"** %.addr, align 8
  %this1 = load %"class.tensorflow::TensorShapeBase"*, %"class.tensorflow::TensorShapeBase"** %this.addr, align 8
  %1 = bitcast %"class.tensorflow::TensorShapeBase"* %this1 to %"class.tensorflow::TensorShapeRep"*
  %2 = load %"class.tensorflow::TensorShapeBase"*, %"class.tensorflow::TensorShapeBase"** %.addr, align 8
  %3 = bitcast %"class.tensorflow::TensorShapeBase"* %2 to %"class.tensorflow::TensorShapeRep"*
  call void @_ZN10tensorflow14TensorShapeRepC2EOS0_(%"class.tensorflow::TensorShapeRep"* %1, %"class.tensorflow::TensorShapeRep"* nonnull align 8 dereferenceable(24) %3)
  ret void
}

; Function Attrs: noinline optnone uwtable
define linkonce_odr dso_local void @_ZN10tensorflow14TensorShapeRepC2EOS0_(%"class.tensorflow::TensorShapeRep"* %this, %"class.tensorflow::TensorShapeRep"* nonnull align 8 dereferenceable(24) %b) unnamed_addr #6 comdat align 2 {
entry:
  %this.addr = alloca %"class.tensorflow::TensorShapeRep"*, align 8
  %b.addr = alloca %"class.tensorflow::TensorShapeRep"*, align 8
  store %"class.tensorflow::TensorShapeRep"* %this, %"class.tensorflow::TensorShapeRep"** %this.addr, align 8
  store %"class.tensorflow::TensorShapeRep"* %b, %"class.tensorflow::TensorShapeRep"** %b.addr, align 8
  %this1 = load %"class.tensorflow::TensorShapeRep"*, %"class.tensorflow::TensorShapeRep"** %this.addr, align 8
  %u_ = getelementptr inbounds %"class.tensorflow::TensorShapeRep", %"class.tensorflow::TensorShapeRep"* %this1, i32 0, i32 0
  %0 = load %"class.tensorflow::TensorShapeRep"*, %"class.tensorflow::TensorShapeRep"** %b.addr, align 8
  %num_elements_ = getelementptr inbounds %"class.tensorflow::TensorShapeRep", %"class.tensorflow::TensorShapeRep"* %0, i32 0, i32 1
  %1 = load i64, i64* %num_elements_, align 8
  %num_elements_2 = getelementptr inbounds %"class.tensorflow::TensorShapeRep", %"class.tensorflow::TensorShapeRep"* %this1, i32 0, i32 1
  store i64 %1, i64* %num_elements_2, align 8
  %call = call i8* @_ZN10tensorflow14TensorShapeRep3bufEv(%"class.tensorflow::TensorShapeRep"* %this1)
  %2 = load %"class.tensorflow::TensorShapeRep"*, %"class.tensorflow::TensorShapeRep"** %b.addr, align 8
  %call3 = call i8* @_ZN10tensorflow14TensorShapeRep3bufEv(%"class.tensorflow::TensorShapeRep"* %2)
  %3 = call i8* @memcpy(i8* %call, i8* %call3, i64 16)
  %4 = load %"class.tensorflow::TensorShapeRep"*, %"class.tensorflow::TensorShapeRep"** %b.addr, align 8
  call void @_ZN10tensorflow14TensorShapeRep7set_tagENS0_6RepTagE(%"class.tensorflow::TensorShapeRep"* %4, i32 0)
  ret void
}

; Function Attrs: noinline nounwind optnone uwtable
define linkonce_odr dso_local i8* @_ZN10tensorflow14TensorShapeRep3bufEv(%"class.tensorflow::TensorShapeRep"* %this) #0 comdat align 2 {
entry:
  %this.addr = alloca %"class.tensorflow::TensorShapeRep"*, align 8
  store %"class.tensorflow::TensorShapeRep"* %this, %"class.tensorflow::TensorShapeRep"** %this.addr, align 8
  %this1 = load %"class.tensorflow::TensorShapeRep"*, %"class.tensorflow::TensorShapeRep"** %this.addr, align 8
  %u_ = getelementptr inbounds %"class.tensorflow::TensorShapeRep", %"class.tensorflow::TensorShapeRep"* %this1, i32 0, i32 0
  %buf = bitcast %union.anon.0* %u_ to [16 x i8]*
  %arrayidx = getelementptr inbounds [16 x i8], [16 x i8]* %buf, i64 0, i64 0
  ret i8* %arrayidx
}

; Function Attrs: noinline nounwind optnone uwtable
define linkonce_odr dso_local void @_ZN10tensorflow14TensorShapeRep7set_tagENS0_6RepTagE(%"class.tensorflow::TensorShapeRep"* %this, i32 %tag) #0 comdat align 2 {
entry:
  %this.addr = alloca %"class.tensorflow::TensorShapeRep"*, align 8
  %tag.addr = alloca i32, align 4
  store %"class.tensorflow::TensorShapeRep"* %this, %"class.tensorflow::TensorShapeRep"** %this.addr, align 8
  store i32 %tag, i32* %tag.addr, align 4
  %this1 = load %"class.tensorflow::TensorShapeRep"*, %"class.tensorflow::TensorShapeRep"** %this.addr, align 8
  %0 = load i32, i32* %tag.addr, align 4
  %conv = trunc i32 %0 to i8
  %call = call i8* @_ZN10tensorflow14TensorShapeRep3bufEv(%"class.tensorflow::TensorShapeRep"* %this1)
  %arrayidx = getelementptr inbounds i8, i8* %call, i64 15
  store i8 %conv, i8* %arrayidx, align 1
  ret void
}

; Function Attrs: noinline nounwind optnone uwtable
define linkonce_odr dso_local i64 @_ZN3tsl8internal21GetReferenceableValueEl(i64 %t) #0 comdat {
entry:
  %t.addr = alloca i64, align 8
  store i64 %t, i64* %t.addr, align 8
  %0 = load i64, i64* %t.addr, align 8
  ret i64 %0
}

; Function Attrs: noinline nounwind optnone uwtable
define linkonce_odr dso_local i32 @_ZN3tsl8internal21GetReferenceableValueEi(i32 %t) #0 comdat {
entry:
  %t.addr = alloca i32, align 4
  store i32 %t, i32* %t.addr, align 4
  %0 = load i32, i32* %t.addr, align 4
  ret i32 %0
}

; Function Attrs: noinline optnone uwtable
define linkonce_odr dso_local %"class.std::__cxx11::basic_string"* @_ZN3tsl8internal12Check_GTImplIliEEPNSt7__cxx1112basic_stringIcSt11char_traitsIcESaIcEEERKT_RKT0_PKc(i64* nonnull align 8 dereferenceable(8) %v1, i32* nonnull align 4 dereferenceable(4) %v2, i8* %exprtext) #6 comdat {
entry:
  %v1.addr = alloca i64*, align 8
  %v2.addr = alloca i32*, align 8
  %exprtext.addr = alloca i8*, align 8
  store i64* %v1, i64** %v1.addr, align 8
  store i32* %v2, i32** %v2.addr, align 8
  store i8* %exprtext, i8** %exprtext.addr, align 8
  %0 = load i32*, i32** %v2.addr, align 8
  %1 = load i64*, i64** %v1.addr, align 8
  %2 = load i8*, i8** %exprtext.addr, align 8
  %call = call %"class.std::__cxx11::basic_string"* @_ZN3tsl8internal12Check_LTImplIilEEPNSt7__cxx1112basic_stringIcSt11char_traitsIcESaIcEEERKT_RKT0_PKc(i32* nonnull align 4 dereferenceable(4) %0, i64* nonnull align 8 dereferenceable(8) %1, i8* %2)
  ret %"class.std::__cxx11::basic_string"* %call
}

; Function Attrs: noinline nounwind optnone uwtable
define linkonce_odr dso_local void @_ZN3tsl8internal13CheckOpStringC2EPNSt7__cxx1112basic_stringIcSt11char_traitsIcESaIcEEE(%"struct.tsl::internal::CheckOpString"* %this, %"class.std::__cxx11::basic_string"* %str) unnamed_addr #0 comdat align 2 {
entry:
  %this.addr = alloca %"struct.tsl::internal::CheckOpString"*, align 8
  %str.addr = alloca %"class.std::__cxx11::basic_string"*, align 8
  store %"struct.tsl::internal::CheckOpString"* %this, %"struct.tsl::internal::CheckOpString"** %this.addr, align 8
  store %"class.std::__cxx11::basic_string"* %str, %"class.std::__cxx11::basic_string"** %str.addr, align 8
  %this1 = load %"struct.tsl::internal::CheckOpString"*, %"struct.tsl::internal::CheckOpString"** %this.addr, align 8
  %str_ = getelementptr inbounds %"struct.tsl::internal::CheckOpString", %"struct.tsl::internal::CheckOpString"* %this1, i32 0, i32 0
  %0 = load %"class.std::__cxx11::basic_string"*, %"class.std::__cxx11::basic_string"** %str.addr, align 8
  store %"class.std::__cxx11::basic_string"* %0, %"class.std::__cxx11::basic_string"** %str_, align 8
  ret void
}

; Function Attrs: noinline nounwind optnone uwtable
define linkonce_odr dso_local zeroext i1 @_ZNK3tsl8internal13CheckOpStringcvbEv(%"struct.tsl::internal::CheckOpString"* %this) #0 comdat align 2 {
entry:
  %this.addr = alloca %"struct.tsl::internal::CheckOpString"*, align 8
  store %"struct.tsl::internal::CheckOpString"* %this, %"struct.tsl::internal::CheckOpString"** %this.addr, align 8
  %this1 = load %"struct.tsl::internal::CheckOpString"*, %"struct.tsl::internal::CheckOpString"** %this.addr, align 8
  %str_ = getelementptr inbounds %"struct.tsl::internal::CheckOpString", %"struct.tsl::internal::CheckOpString"* %this1, i32 0, i32 0
  %0 = load %"class.std::__cxx11::basic_string"*, %"class.std::__cxx11::basic_string"** %str_, align 8
  %cmp = icmp ne %"class.std::__cxx11::basic_string"* %0, null
  ret i1 %cmp
}

; Function Attrs: cold
declare dso_local void @_ZN3tsl8internal15LogMessageFatalC1EPKci(%"class.tsl::internal::LogMessageFatal"*, i8*, i32) unnamed_addr #14

; Function Attrs: noinline optnone uwtable
define linkonce_odr dso_local nonnull align 8 dereferenceable(136) %"class.tsl::internal::LogMessageFatal"* @_ZStlsIN3tsl8internal15LogMessageFatalENSt7__cxx1112basic_stringIcSt11char_traitsIcESaIcEEEEOT_SA_RKT0_(%"class.tsl::internal::LogMessageFatal"* nonnull align 8 dereferenceable(136) %__os, %"class.std::__cxx11::basic_string"* nonnull align 8 dereferenceable(32) %__x) #6 comdat {
entry:
  %__os.addr = alloca %"class.tsl::internal::LogMessageFatal"*, align 8
  %__x.addr = alloca %"class.std::__cxx11::basic_string"*, align 8
  store %"class.tsl::internal::LogMessageFatal"* %__os, %"class.tsl::internal::LogMessageFatal"** %__os.addr, align 8
  store %"class.std::__cxx11::basic_string"* %__x, %"class.std::__cxx11::basic_string"** %__x.addr, align 8
  %0 = load %"class.tsl::internal::LogMessageFatal"*, %"class.tsl::internal::LogMessageFatal"** %__os.addr, align 8
  %1 = bitcast %"class.tsl::internal::LogMessageFatal"* %0 to %"class.std::basic_ostream"*
  %2 = load %"class.std::__cxx11::basic_string"*, %"class.std::__cxx11::basic_string"** %__x.addr, align 8
  %call = call nonnull align 8 dereferenceable(8) %"class.std::basic_ostream"* @_ZStlsIcSt11char_traitsIcESaIcEERSt13basic_ostreamIT_T0_ES7_RKNSt7__cxx1112basic_stringIS4_S5_T1_EE(%"class.std::basic_ostream"* nonnull align 8 dereferenceable(8) %1, %"class.std::__cxx11::basic_string"* nonnull align 8 dereferenceable(32) %2)
  %3 = load %"class.tsl::internal::LogMessageFatal"*, %"class.tsl::internal::LogMessageFatal"** %__os.addr, align 8
  %call1 = call nonnull align 8 dereferenceable(136) %"class.tsl::internal::LogMessageFatal"* @_ZSt4moveIRN3tsl8internal15LogMessageFatalEEONSt16remove_referenceIT_E4typeEOS5_(%"class.tsl::internal::LogMessageFatal"* nonnull align 8 dereferenceable(136) %3) #11
  ret %"class.tsl::internal::LogMessageFatal"* %call1
}

; Function Attrs: noreturn nounwind
declare dso_local void @_ZN3tsl8internal15LogMessageFatalD1Ev(%"class.tsl::internal::LogMessageFatal"*) unnamed_addr #5

declare dso_local nonnull align 8 dereferenceable(8) %"class.std::basic_ostream"* @_ZStlsIcSt11char_traitsIcESaIcEERSt13basic_ostreamIT_T0_ES7_RKNSt7__cxx1112basic_stringIS4_S5_T1_EE(%"class.std::basic_ostream"* nonnull align 8 dereferenceable(8), %"class.std::__cxx11::basic_string"* nonnull align 8 dereferenceable(32)) #4

; Function Attrs: noinline nounwind optnone uwtable
define linkonce_odr dso_local nonnull align 8 dereferenceable(136) %"class.tsl::internal::LogMessageFatal"* @_ZSt4moveIRN3tsl8internal15LogMessageFatalEEONSt16remove_referenceIT_E4typeEOS5_(%"class.tsl::internal::LogMessageFatal"* nonnull align 8 dereferenceable(136) %__t) #0 comdat {
entry:
  %__t.addr = alloca %"class.tsl::internal::LogMessageFatal"*, align 8
  store %"class.tsl::internal::LogMessageFatal"* %__t, %"class.tsl::internal::LogMessageFatal"** %__t.addr, align 8
  %0 = load %"class.tsl::internal::LogMessageFatal"*, %"class.tsl::internal::LogMessageFatal"** %__t.addr, align 8
  ret %"class.tsl::internal::LogMessageFatal"* %0
}

; Function Attrs: noinline optnone uwtable
define linkonce_odr dso_local %"class.std::__cxx11::basic_string"* @_ZN3tsl8internal12Check_LTImplIilEEPNSt7__cxx1112basic_stringIcSt11char_traitsIcESaIcEEERKT_RKT0_PKc(i32* nonnull align 4 dereferenceable(4) %v1, i64* nonnull align 8 dereferenceable(8) %v2, i8* %exprtext) #6 comdat {
entry:
  %retval = alloca %"class.std::__cxx11::basic_string"*, align 8
  %v1.addr = alloca i32*, align 8
  %v2.addr = alloca i64*, align 8
  %exprtext.addr = alloca i8*, align 8
  store i32* %v1, i32** %v1.addr, align 8
  store i64* %v2, i64** %v2.addr, align 8
  store i8* %exprtext, i8** %exprtext.addr, align 8
  %0 = load i32*, i32** %v1.addr, align 8
  %1 = load i32, i32* %0, align 4
  %conv = sext i32 %1 to i64
  %2 = load i64*, i64** %v2.addr, align 8
  %3 = load i64, i64* %2, align 8
  %cmp = icmp slt i64 %conv, %3
  %lnot = xor i1 %cmp, true
  %lnot1 = xor i1 %lnot, true
  br i1 %lnot1, label %if.then, label %if.else

if.then:                                          ; preds = %entry
  store %"class.std::__cxx11::basic_string"* null, %"class.std::__cxx11::basic_string"** %retval, align 8
  br label %return

if.else:                                          ; preds = %entry
  %4 = load i32*, i32** %v1.addr, align 8
  %5 = load i64*, i64** %v2.addr, align 8
  %6 = load i8*, i8** %exprtext.addr, align 8
  %call = call %"class.std::__cxx11::basic_string"* @_ZN3tsl8internal17MakeCheckOpStringIilEEPNSt7__cxx1112basic_stringIcSt11char_traitsIcESaIcEEERKT_RKT0_PKc(i32* nonnull align 4 dereferenceable(4) %4, i64* nonnull align 8 dereferenceable(8) %5, i8* %6)
  store %"class.std::__cxx11::basic_string"* %call, %"class.std::__cxx11::basic_string"** %retval, align 8
  br label %return

return:                                           ; preds = %if.else, %if.then
  %7 = load %"class.std::__cxx11::basic_string"*, %"class.std::__cxx11::basic_string"** %retval, align 8
  ret %"class.std::__cxx11::basic_string"* %7
}

; Function Attrs: noinline optnone uwtable
define linkonce_odr dso_local %"class.std::__cxx11::basic_string"* @_ZN3tsl8internal17MakeCheckOpStringIilEEPNSt7__cxx1112basic_stringIcSt11char_traitsIcESaIcEEERKT_RKT0_PKc(i32* nonnull align 4 dereferenceable(4) %v1, i64* nonnull align 8 dereferenceable(8) %v2, i8* %exprtext) #6 comdat personality i8* bitcast (i32 (...)* @__gxx_personality_v0 to i8*) {
entry:
  %v1.addr = alloca i32*, align 8
  %v2.addr = alloca i64*, align 8
  %exprtext.addr = alloca i8*, align 8
  %comb = alloca %"class.tsl::internal::CheckOpMessageBuilder", align 8
  %exn.slot = alloca i8*, align 8
  %ehselector.slot = alloca i32, align 4
  store i32* %v1, i32** %v1.addr, align 8
  store i64* %v2, i64** %v2.addr, align 8
  store i8* %exprtext, i8** %exprtext.addr, align 8
  %0 = load i8*, i8** %exprtext.addr, align 8
  call void @_ZN3tsl8internal21CheckOpMessageBuilderC1EPKc(%"class.tsl::internal::CheckOpMessageBuilder"* %comb, i8* %0)
  %call = invoke %"class.std::basic_ostream"* @_ZN3tsl8internal21CheckOpMessageBuilder7ForVar1Ev(%"class.tsl::internal::CheckOpMessageBuilder"* %comb)
          to label %invoke.cont unwind label %lpad

invoke.cont:                                      ; preds = %entry
  %1 = load i32*, i32** %v1.addr, align 8
  invoke void @_ZN3tsl8internal22MakeCheckOpValueStringIiEEvPSoRKT_(%"class.std::basic_ostream"* %call, i32* nonnull align 4 dereferenceable(4) %1)
          to label %invoke.cont1 unwind label %lpad

invoke.cont1:                                     ; preds = %invoke.cont
  %call3 = invoke %"class.std::basic_ostream"* @_ZN3tsl8internal21CheckOpMessageBuilder7ForVar2Ev(%"class.tsl::internal::CheckOpMessageBuilder"* %comb)
          to label %invoke.cont2 unwind label %lpad

invoke.cont2:                                     ; preds = %invoke.cont1
  %2 = load i64*, i64** %v2.addr, align 8
  invoke void @_ZN3tsl8internal22MakeCheckOpValueStringIlEEvPSoRKT_(%"class.std::basic_ostream"* %call3, i64* nonnull align 8 dereferenceable(8) %2)
          to label %invoke.cont4 unwind label %lpad

invoke.cont4:                                     ; preds = %invoke.cont2
  %call6 = invoke %"class.std::__cxx11::basic_string"* @_ZN3tsl8internal21CheckOpMessageBuilder9NewStringB5cxx11Ev(%"class.tsl::internal::CheckOpMessageBuilder"* %comb)
          to label %invoke.cont5 unwind label %lpad

invoke.cont5:                                     ; preds = %invoke.cont4
  call void @_ZN3tsl8internal21CheckOpMessageBuilderD1Ev(%"class.tsl::internal::CheckOpMessageBuilder"* %comb) #11
  ret %"class.std::__cxx11::basic_string"* %call6

lpad:                                             ; preds = %invoke.cont4, %invoke.cont2, %invoke.cont1, %invoke.cont, %entry
  %3 = landingpad { i8*, i32 }
          cleanup
  %4 = extractvalue { i8*, i32 } %3, 0
  store i8* %4, i8** %exn.slot, align 8
  %5 = extractvalue { i8*, i32 } %3, 1
  store i32 %5, i32* %ehselector.slot, align 4
  call void @_ZN3tsl8internal21CheckOpMessageBuilderD1Ev(%"class.tsl::internal::CheckOpMessageBuilder"* %comb) #11
  br label %eh.resume

eh.resume:                                        ; preds = %lpad
  %exn = load i8*, i8** %exn.slot, align 8
  %sel = load i32, i32* %ehselector.slot, align 4
  %lpad.val = insertvalue { i8*, i32 } undef, i8* %exn, 0
  %lpad.val7 = insertvalue { i8*, i32 } %lpad.val, i32 %sel, 1
  resume { i8*, i32 } %lpad.val7
}

declare dso_local void @_ZN3tsl8internal21CheckOpMessageBuilderC1EPKc(%"class.tsl::internal::CheckOpMessageBuilder"*, i8*) unnamed_addr #4

; Function Attrs: noinline nounwind optnone uwtable
define linkonce_odr dso_local %"class.std::basic_ostream"* @_ZN3tsl8internal21CheckOpMessageBuilder7ForVar1Ev(%"class.tsl::internal::CheckOpMessageBuilder"* %this) #0 comdat align 2 {
entry:
  %this.addr = alloca %"class.tsl::internal::CheckOpMessageBuilder"*, align 8
  store %"class.tsl::internal::CheckOpMessageBuilder"* %this, %"class.tsl::internal::CheckOpMessageBuilder"** %this.addr, align 8
  %this1 = load %"class.tsl::internal::CheckOpMessageBuilder"*, %"class.tsl::internal::CheckOpMessageBuilder"** %this.addr, align 8
  %stream_ = getelementptr inbounds %"class.tsl::internal::CheckOpMessageBuilder", %"class.tsl::internal::CheckOpMessageBuilder"* %this1, i32 0, i32 0
  %0 = load %"class.std::__cxx11::basic_ostringstream"*, %"class.std::__cxx11::basic_ostringstream"** %stream_, align 8
  %1 = bitcast %"class.std::__cxx11::basic_ostringstream"* %0 to %"class.std::basic_ostream"*
  ret %"class.std::basic_ostream"* %1
}

; Function Attrs: noinline optnone uwtable
define linkonce_odr dso_local void @_ZN3tsl8internal22MakeCheckOpValueStringIiEEvPSoRKT_(%"class.std::basic_ostream"* %os, i32* nonnull align 4 dereferenceable(4) %v) #6 comdat {
entry:
  %os.addr = alloca %"class.std::basic_ostream"*, align 8
  %v.addr = alloca i32*, align 8
  store %"class.std::basic_ostream"* %os, %"class.std::basic_ostream"** %os.addr, align 8
  store i32* %v, i32** %v.addr, align 8
  %0 = load %"class.std::basic_ostream"*, %"class.std::basic_ostream"** %os.addr, align 8
  %1 = load i32*, i32** %v.addr, align 8
  %2 = load i32, i32* %1, align 4
  %call = call nonnull align 8 dereferenceable(8) %"class.std::basic_ostream"* @_ZNSolsEi(%"class.std::basic_ostream"* %0, i32 %2)
  ret void
}

declare dso_local %"class.std::basic_ostream"* @_ZN3tsl8internal21CheckOpMessageBuilder7ForVar2Ev(%"class.tsl::internal::CheckOpMessageBuilder"*) #4

; Function Attrs: noinline optnone uwtable
define linkonce_odr dso_local void @_ZN3tsl8internal22MakeCheckOpValueStringIlEEvPSoRKT_(%"class.std::basic_ostream"* %os, i64* nonnull align 8 dereferenceable(8) %v) #6 comdat {
entry:
  %os.addr = alloca %"class.std::basic_ostream"*, align 8
  %v.addr = alloca i64*, align 8
  store %"class.std::basic_ostream"* %os, %"class.std::basic_ostream"** %os.addr, align 8
  store i64* %v, i64** %v.addr, align 8
  %0 = load %"class.std::basic_ostream"*, %"class.std::basic_ostream"** %os.addr, align 8
  %1 = load i64*, i64** %v.addr, align 8
  %2 = load i64, i64* %1, align 8
  %call = call nonnull align 8 dereferenceable(8) %"class.std::basic_ostream"* @_ZNSolsEl(%"class.std::basic_ostream"* %0, i64 %2)
  ret void
}

declare dso_local %"class.std::__cxx11::basic_string"* @_ZN3tsl8internal21CheckOpMessageBuilder9NewStringB5cxx11Ev(%"class.tsl::internal::CheckOpMessageBuilder"*) #4

; Function Attrs: nounwind
declare dso_local void @_ZN3tsl8internal21CheckOpMessageBuilderD1Ev(%"class.tsl::internal::CheckOpMessageBuilder"*) unnamed_addr #3

declare dso_local nonnull align 8 dereferenceable(8) %"class.std::basic_ostream"* @_ZNSolsEl(%"class.std::basic_ostream"*, i64) #4

declare dso_local nonnull align 8 dereferenceable(8) %"class.std::basic_ostream"* @_ZNSolsEi(%"class.std::basic_ostream"*, i32) #4

; Function Attrs: noinline nounwind optnone uwtable
define linkonce_odr dso_local void @_ZN10tensorflow15TensorShapeBaseINS_11TensorShapeEED2Ev(%"class.tensorflow::TensorShapeBase"* %this) unnamed_addr #0 comdat align 2 {
entry:
  %this.addr = alloca %"class.tensorflow::TensorShapeBase"*, align 8
  store %"class.tensorflow::TensorShapeBase"* %this, %"class.tensorflow::TensorShapeBase"** %this.addr, align 8
  %this1 = load %"class.tensorflow::TensorShapeBase"*, %"class.tensorflow::TensorShapeBase"** %this.addr, align 8
  %0 = bitcast %"class.tensorflow::TensorShapeBase"* %this1 to %"class.tensorflow::TensorShapeRep"*
  call void @_ZN10tensorflow14TensorShapeRepD2Ev(%"class.tensorflow::TensorShapeRep"* %0) #11
  ret void
}

; Function Attrs: noinline nounwind optnone uwtable
define linkonce_odr dso_local void @_ZN10tensorflow14TensorShapeRepD2Ev(%"class.tensorflow::TensorShapeRep"* %this) unnamed_addr #0 comdat align 2 personality i8* bitcast (i32 (...)* @__gxx_personality_v0 to i8*) {
entry:
  %this.addr = alloca %"class.tensorflow::TensorShapeRep"*, align 8
  store %"class.tensorflow::TensorShapeRep"* %this, %"class.tensorflow::TensorShapeRep"** %this.addr, align 8
  %this1 = load %"class.tensorflow::TensorShapeRep"*, %"class.tensorflow::TensorShapeRep"** %this.addr, align 8
  %call = invoke i32 @_ZNK10tensorflow14TensorShapeRep3tagEv(%"class.tensorflow::TensorShapeRep"* %this1)
          to label %invoke.cont unwind label %terminate.lpad

invoke.cont:                                      ; preds = %entry
  %cmp = icmp eq i32 %call, 2
  br i1 %cmp, label %if.then, label %if.end

if.then:                                          ; preds = %invoke.cont
  invoke void @_ZN10tensorflow14TensorShapeRep19DestructorOutOfLineEv(%"class.tensorflow::TensorShapeRep"* %this1)
          to label %invoke.cont2 unwind label %terminate.lpad

invoke.cont2:                                     ; preds = %if.then
  br label %if.end

if.end:                                           ; preds = %invoke.cont2, %invoke.cont
  ret void

terminate.lpad:                                   ; preds = %if.then, %entry
  %0 = landingpad { i8*, i32 }
          catch i8* null
  %1 = extractvalue { i8*, i32 } %0, 0
  call void @__clang_call_terminate(i8* %1) #16
  unreachable
}

; Function Attrs: noinline nounwind optnone uwtable
define linkonce_odr dso_local i32 @_ZNK10tensorflow14TensorShapeRep3tagEv(%"class.tensorflow::TensorShapeRep"* %this) #0 comdat align 2 {
entry:
  %this.addr = alloca %"class.tensorflow::TensorShapeRep"*, align 8
  store %"class.tensorflow::TensorShapeRep"* %this, %"class.tensorflow::TensorShapeRep"** %this.addr, align 8
  %this1 = load %"class.tensorflow::TensorShapeRep"*, %"class.tensorflow::TensorShapeRep"** %this.addr, align 8
  %call = call i8* @_ZNK10tensorflow14TensorShapeRep3bufEv(%"class.tensorflow::TensorShapeRep"* %this1)
  %arrayidx = getelementptr inbounds i8, i8* %call, i64 15
  %0 = load i8, i8* %arrayidx, align 1
  %conv = zext i8 %0 to i32
  ret i32 %conv
}

declare dso_local void @_ZN10tensorflow14TensorShapeRep19DestructorOutOfLineEv(%"class.tensorflow::TensorShapeRep"*) #4

declare dso_local void @_ZN10tensorflow15TensorShapeBaseINS_11TensorShapeEEC2EN4absl12lts_202501274SpanIKlEE(%"class.tensorflow::TensorShapeBase"*, i64*, i64) unnamed_addr #4

; Function Attrs: noinline nounwind optnone uwtable
define linkonce_odr dso_local i64* @_ZN4absl12lts_2025012713span_internal7GetDataIKSt6vectorIlSaIlEEEEDTcl11GetDataImplfp_Li0EEERT_(%"class.std::vector"* nonnull align 8 dereferenceable(24) %c) #0 comdat {
entry:
  %c.addr = alloca %"class.std::vector"*, align 8
  store %"class.std::vector"* %c, %"class.std::vector"** %c.addr, align 8
  %0 = load %"class.std::vector"*, %"class.std::vector"** %c.addr, align 8
  %call = call i64* @_ZN4absl12lts_2025012713span_internal11GetDataImplIKSt6vectorIlSaIlEEEEDTcldtfp_4dataEERT_c(%"class.std::vector"* nonnull align 8 dereferenceable(24) %0, i8 signext 0) #11
  ret i64* %call
}

; Function Attrs: noinline nounwind optnone uwtable
define linkonce_odr dso_local i64 @_ZNKSt6vectorIlSaIlEE4sizeEv(%"class.std::vector"* %this) #0 comdat align 2 {
entry:
  %this.addr = alloca %"class.std::vector"*, align 8
  store %"class.std::vector"* %this, %"class.std::vector"** %this.addr, align 8
  %this1 = load %"class.std::vector"*, %"class.std::vector"** %this.addr, align 8
  %0 = bitcast %"class.std::vector"* %this1 to %"struct.std::_Vector_base"*
  %_M_impl = getelementptr inbounds %"struct.std::_Vector_base", %"struct.std::_Vector_base"* %0, i32 0, i32 0
  %1 = bitcast %"struct.std::_Vector_base<long, std::allocator<long>>::_Vector_impl"* %_M_impl to %"struct.std::_Vector_base<long, std::allocator<long>>::_Vector_impl_data"*
  %_M_finish = getelementptr inbounds %"struct.std::_Vector_base<long, std::allocator<long>>::_Vector_impl_data", %"struct.std::_Vector_base<long, std::allocator<long>>::_Vector_impl_data"* %1, i32 0, i32 1
  %2 = load i64*, i64** %_M_finish, align 8
  %3 = bitcast %"class.std::vector"* %this1 to %"struct.std::_Vector_base"*
  %_M_impl2 = getelementptr inbounds %"struct.std::_Vector_base", %"struct.std::_Vector_base"* %3, i32 0, i32 0
  %4 = bitcast %"struct.std::_Vector_base<long, std::allocator<long>>::_Vector_impl"* %_M_impl2 to %"struct.std::_Vector_base<long, std::allocator<long>>::_Vector_impl_data"*
  %_M_start = getelementptr inbounds %"struct.std::_Vector_base<long, std::allocator<long>>::_Vector_impl_data", %"struct.std::_Vector_base<long, std::allocator<long>>::_Vector_impl_data"* %4, i32 0, i32 0
  %5 = load i64*, i64** %_M_start, align 8
  %sub.ptr.lhs.cast = ptrtoint i64* %2 to i64
  %sub.ptr.rhs.cast = ptrtoint i64* %5 to i64
  %sub.ptr.sub = sub i64 %sub.ptr.lhs.cast, %sub.ptr.rhs.cast
  %sub.ptr.div = sdiv exact i64 %sub.ptr.sub, 8
  ret i64 %sub.ptr.div
}

; Function Attrs: noinline nounwind optnone uwtable
define linkonce_odr dso_local void @_ZN4absl12lts_202501274SpanIKlEC2EPS2_m(%"struct.absl::lts_20250127::inlined_vector_internal::Storage<long, 4, std::allocator<long>>::Allocated"* %this, i64* %array, i64 %length) unnamed_addr #0 comdat align 2 {
entry:
  %this.addr = alloca %"struct.absl::lts_20250127::inlined_vector_internal::Storage<long, 4, std::allocator<long>>::Allocated"*, align 8
  %array.addr = alloca i64*, align 8
  %length.addr = alloca i64, align 8
  store %"struct.absl::lts_20250127::inlined_vector_internal::Storage<long, 4, std::allocator<long>>::Allocated"* %this, %"struct.absl::lts_20250127::inlined_vector_internal::Storage<long, 4, std::allocator<long>>::Allocated"** %this.addr, align 8
  store i64* %array, i64** %array.addr, align 8
  store i64 %length, i64* %length.addr, align 8
  %this1 = load %"struct.absl::lts_20250127::inlined_vector_internal::Storage<long, 4, std::allocator<long>>::Allocated"*, %"struct.absl::lts_20250127::inlined_vector_internal::Storage<long, 4, std::allocator<long>>::Allocated"** %this.addr, align 8
  %ptr_ = getelementptr inbounds %"struct.absl::lts_20250127::inlined_vector_internal::Storage<long, 4, std::allocator<long>>::Allocated", %"struct.absl::lts_20250127::inlined_vector_internal::Storage<long, 4, std::allocator<long>>::Allocated"* %this1, i32 0, i32 0
  %0 = load i64*, i64** %array.addr, align 8
  store i64* %0, i64** %ptr_, align 8
  %len_ = getelementptr inbounds %"struct.absl::lts_20250127::inlined_vector_internal::Storage<long, 4, std::allocator<long>>::Allocated", %"struct.absl::lts_20250127::inlined_vector_internal::Storage<long, 4, std::allocator<long>>::Allocated"* %this1, i32 0, i32 1
  %1 = load i64, i64* %length.addr, align 8
  store i64 %1, i64* %len_, align 8
  ret void
}

; Function Attrs: noinline nounwind optnone uwtable
define linkonce_odr dso_local i64* @_ZN4absl12lts_2025012713span_internal11GetDataImplIKSt6vectorIlSaIlEEEEDTcldtfp_4dataEERT_c(%"class.std::vector"* nonnull align 8 dereferenceable(24) %c, i8 signext %0) #0 comdat {
entry:
  %c.addr = alloca %"class.std::vector"*, align 8
  %.addr = alloca i8, align 1
  store %"class.std::vector"* %c, %"class.std::vector"** %c.addr, align 8
  store i8 %0, i8* %.addr, align 1
  %1 = load %"class.std::vector"*, %"class.std::vector"** %c.addr, align 8
  %call = call i64* @_ZNKSt6vectorIlSaIlEE4dataEv(%"class.std::vector"* %1) #11
  ret i64* %call
}

; Function Attrs: noinline nounwind optnone uwtable
define linkonce_odr dso_local i64* @_ZNKSt6vectorIlSaIlEE4dataEv(%"class.std::vector"* %this) #0 comdat align 2 {
entry:
  %this.addr = alloca %"class.std::vector"*, align 8
  store %"class.std::vector"* %this, %"class.std::vector"** %this.addr, align 8
  %this1 = load %"class.std::vector"*, %"class.std::vector"** %this.addr, align 8
  %0 = bitcast %"class.std::vector"* %this1 to %"struct.std::_Vector_base"*
  %_M_impl = getelementptr inbounds %"struct.std::_Vector_base", %"struct.std::_Vector_base"* %0, i32 0, i32 0
  %1 = bitcast %"struct.std::_Vector_base<long, std::allocator<long>>::_Vector_impl"* %_M_impl to %"struct.std::_Vector_base<long, std::allocator<long>>::_Vector_impl_data"*
  %_M_start = getelementptr inbounds %"struct.std::_Vector_base<long, std::allocator<long>>::_Vector_impl_data", %"struct.std::_Vector_base<long, std::allocator<long>>::_Vector_impl_data"* %1, i32 0, i32 0
  %2 = load i64*, i64** %_M_start, align 8
  %call = call i64* @_ZNKSt6vectorIlSaIlEE11_M_data_ptrIlEEPT_S4_(%"class.std::vector"* %this1, i64* %2) #11
  ret i64* %call
}

; Function Attrs: noinline nounwind optnone uwtable
define linkonce_odr dso_local i64* @_ZNKSt6vectorIlSaIlEE11_M_data_ptrIlEEPT_S4_(%"class.std::vector"* %this, i64* %__ptr) #0 comdat align 2 {
entry:
  %this.addr = alloca %"class.std::vector"*, align 8
  %__ptr.addr = alloca i64*, align 8
  store %"class.std::vector"* %this, %"class.std::vector"** %this.addr, align 8
  store i64* %__ptr, i64** %__ptr.addr, align 8
  %this1 = load %"class.std::vector"*, %"class.std::vector"** %this.addr, align 8
  %0 = load i64*, i64** %__ptr.addr, align 8
  ret i64* %0
}

; Function Attrs: noinline nounwind optnone uwtable
define linkonce_odr dso_local void @_ZN9__gnu_cxx13new_allocatorIlED2Ev(%"class.std::ios_base::Init"* %this) unnamed_addr #0 comdat align 2 {
entry:
  %this.addr = alloca %"class.std::ios_base::Init"*, align 8
  store %"class.std::ios_base::Init"* %this, %"class.std::ios_base::Init"** %this.addr, align 8
  %this1 = load %"class.std::ios_base::Init"*, %"class.std::ios_base::Init"** %this.addr, align 8
  ret void
}

; Function Attrs: noinline optnone uwtable
define linkonce_odr dso_local i64 @_ZNSt6vectorIlSaIlEE17_S_check_init_lenEmRKS0_(i64 %__n, %"class.std::ios_base::Init"* nonnull align 1 dereferenceable(1) %__a) #6 comdat align 2 {
entry:
  %__n.addr = alloca i64, align 8
  %__a.addr = alloca %"class.std::ios_base::Init"*, align 8
  %ref.tmp = alloca %"class.std::ios_base::Init", align 1
  store i64 %__n, i64* %__n.addr, align 8
